
extend.o:     file format elf64-x86-64


Disassembly of section .text:

0000000000000000 <Movzx>:
       0:	48 0f b6 c0          	movzbq %al,%rax
       4:	48 0f b6 c8          	movzbq %al,%rcx
       8:	48 0f b6 d0          	movzbq %al,%rdx
       c:	48 0f b6 d8          	movzbq %al,%rbx
      10:	48 0f b6 e0          	movzbq %al,%rsp
      14:	48 0f b6 e8          	movzbq %al,%rbp
      18:	48 0f b6 f0          	movzbq %al,%rsi
      1c:	48 0f b6 f8          	movzbq %al,%rdi
      20:	4c 0f b6 c0          	movzbq %al,%r8
      24:	4c 0f b6 c8          	movzbq %al,%r9
      28:	4c 0f b6 d0          	movzbq %al,%r10
      2c:	4c 0f b6 d8          	movzbq %al,%r11
      30:	4c 0f b6 e0          	movzbq %al,%r12
      34:	4c 0f b6 e8          	movzbq %al,%r13
      38:	4c 0f b6 f0          	movzbq %al,%r14
      3c:	4c 0f b6 f8          	movzbq %al,%r15
      40:	90                   	nop
      41:	48 0f b6 c1          	movzbq %cl,%rax
      45:	48 0f b6 c9          	movzbq %cl,%rcx
      49:	48 0f b6 d1          	movzbq %cl,%rdx
      4d:	48 0f b6 d9          	movzbq %cl,%rbx
      51:	48 0f b6 e1          	movzbq %cl,%rsp
      55:	48 0f b6 e9          	movzbq %cl,%rbp
      59:	48 0f b6 f1          	movzbq %cl,%rsi
      5d:	48 0f b6 f9          	movzbq %cl,%rdi
      61:	4c 0f b6 c1          	movzbq %cl,%r8
      65:	4c 0f b6 c9          	movzbq %cl,%r9
      69:	4c 0f b6 d1          	movzbq %cl,%r10
      6d:	4c 0f b6 d9          	movzbq %cl,%r11
      71:	4c 0f b6 e1          	movzbq %cl,%r12
      75:	4c 0f b6 e9          	movzbq %cl,%r13
      79:	4c 0f b6 f1          	movzbq %cl,%r14
      7d:	4c 0f b6 f9          	movzbq %cl,%r15
      81:	90                   	nop
      82:	48 0f b6 c2          	movzbq %dl,%rax
      86:	48 0f b6 ca          	movzbq %dl,%rcx
      8a:	48 0f b6 d2          	movzbq %dl,%rdx
      8e:	48 0f b6 da          	movzbq %dl,%rbx
      92:	48 0f b6 e2          	movzbq %dl,%rsp
      96:	48 0f b6 ea          	movzbq %dl,%rbp
      9a:	48 0f b6 f2          	movzbq %dl,%rsi
      9e:	48 0f b6 fa          	movzbq %dl,%rdi
      a2:	4c 0f b6 c2          	movzbq %dl,%r8
      a6:	4c 0f b6 ca          	movzbq %dl,%r9
      aa:	4c 0f b6 d2          	movzbq %dl,%r10
      ae:	4c 0f b6 da          	movzbq %dl,%r11
      b2:	4c 0f b6 e2          	movzbq %dl,%r12
      b6:	4c 0f b6 ea          	movzbq %dl,%r13
      ba:	4c 0f b6 f2          	movzbq %dl,%r14
      be:	4c 0f b6 fa          	movzbq %dl,%r15
      c2:	90                   	nop
      c3:	48 0f b6 c3          	movzbq %bl,%rax
      c7:	48 0f b6 cb          	movzbq %bl,%rcx
      cb:	48 0f b6 d3          	movzbq %bl,%rdx
      cf:	48 0f b6 db          	movzbq %bl,%rbx
      d3:	48 0f b6 e3          	movzbq %bl,%rsp
      d7:	48 0f b6 eb          	movzbq %bl,%rbp
      db:	48 0f b6 f3          	movzbq %bl,%rsi
      df:	48 0f b6 fb          	movzbq %bl,%rdi
      e3:	4c 0f b6 c3          	movzbq %bl,%r8
      e7:	4c 0f b6 cb          	movzbq %bl,%r9
      eb:	4c 0f b6 d3          	movzbq %bl,%r10
      ef:	4c 0f b6 db          	movzbq %bl,%r11
      f3:	4c 0f b6 e3          	movzbq %bl,%r12
      f7:	4c 0f b6 eb          	movzbq %bl,%r13
      fb:	4c 0f b6 f3          	movzbq %bl,%r14
      ff:	4c 0f b6 fb          	movzbq %bl,%r15
     103:	90                   	nop
     104:	48 0f b6 c4          	movzbq %spl,%rax
     108:	48 0f b6 cc          	movzbq %spl,%rcx
     10c:	48 0f b6 d4          	movzbq %spl,%rdx
     110:	48 0f b6 dc          	movzbq %spl,%rbx
     114:	48 0f b6 e4          	movzbq %spl,%rsp
     118:	48 0f b6 ec          	movzbq %spl,%rbp
     11c:	48 0f b6 f4          	movzbq %spl,%rsi
     120:	48 0f b6 fc          	movzbq %spl,%rdi
     124:	4c 0f b6 c4          	movzbq %spl,%r8
     128:	4c 0f b6 cc          	movzbq %spl,%r9
     12c:	4c 0f b6 d4          	movzbq %spl,%r10
     130:	4c 0f b6 dc          	movzbq %spl,%r11
     134:	4c 0f b6 e4          	movzbq %spl,%r12
     138:	4c 0f b6 ec          	movzbq %spl,%r13
     13c:	4c 0f b6 f4          	movzbq %spl,%r14
     140:	4c 0f b6 fc          	movzbq %spl,%r15
     144:	90                   	nop
     145:	48 0f b6 c5          	movzbq %bpl,%rax
     149:	48 0f b6 cd          	movzbq %bpl,%rcx
     14d:	48 0f b6 d5          	movzbq %bpl,%rdx
     151:	48 0f b6 dd          	movzbq %bpl,%rbx
     155:	48 0f b6 e5          	movzbq %bpl,%rsp
     159:	48 0f b6 ed          	movzbq %bpl,%rbp
     15d:	48 0f b6 f5          	movzbq %bpl,%rsi
     161:	48 0f b6 fd          	movzbq %bpl,%rdi
     165:	4c 0f b6 c5          	movzbq %bpl,%r8
     169:	4c 0f b6 cd          	movzbq %bpl,%r9
     16d:	4c 0f b6 d5          	movzbq %bpl,%r10
     171:	4c 0f b6 dd          	movzbq %bpl,%r11
     175:	4c 0f b6 e5          	movzbq %bpl,%r12
     179:	4c 0f b6 ed          	movzbq %bpl,%r13
     17d:	4c 0f b6 f5          	movzbq %bpl,%r14
     181:	4c 0f b6 fd          	movzbq %bpl,%r15
     185:	90                   	nop
     186:	48 0f b6 c6          	movzbq %sil,%rax
     18a:	48 0f b6 ce          	movzbq %sil,%rcx
     18e:	48 0f b6 d6          	movzbq %sil,%rdx
     192:	48 0f b6 de          	movzbq %sil,%rbx
     196:	48 0f b6 e6          	movzbq %sil,%rsp
     19a:	48 0f b6 ee          	movzbq %sil,%rbp
     19e:	48 0f b6 f6          	movzbq %sil,%rsi
     1a2:	48 0f b6 fe          	movzbq %sil,%rdi
     1a6:	4c 0f b6 c6          	movzbq %sil,%r8
     1aa:	4c 0f b6 ce          	movzbq %sil,%r9
     1ae:	4c 0f b6 d6          	movzbq %sil,%r10
     1b2:	4c 0f b6 de          	movzbq %sil,%r11
     1b6:	4c 0f b6 e6          	movzbq %sil,%r12
     1ba:	4c 0f b6 ee          	movzbq %sil,%r13
     1be:	4c 0f b6 f6          	movzbq %sil,%r14
     1c2:	4c 0f b6 fe          	movzbq %sil,%r15
     1c6:	90                   	nop
     1c7:	48 0f b6 c7          	movzbq %dil,%rax
     1cb:	48 0f b6 cf          	movzbq %dil,%rcx
     1cf:	48 0f b6 d7          	movzbq %dil,%rdx
     1d3:	48 0f b6 df          	movzbq %dil,%rbx
     1d7:	48 0f b6 e7          	movzbq %dil,%rsp
     1db:	48 0f b6 ef          	movzbq %dil,%rbp
     1df:	48 0f b6 f7          	movzbq %dil,%rsi
     1e3:	48 0f b6 ff          	movzbq %dil,%rdi
     1e7:	4c 0f b6 c7          	movzbq %dil,%r8
     1eb:	4c 0f b6 cf          	movzbq %dil,%r9
     1ef:	4c 0f b6 d7          	movzbq %dil,%r10
     1f3:	4c 0f b6 df          	movzbq %dil,%r11
     1f7:	4c 0f b6 e7          	movzbq %dil,%r12
     1fb:	4c 0f b6 ef          	movzbq %dil,%r13
     1ff:	4c 0f b6 f7          	movzbq %dil,%r14
     203:	4c 0f b6 ff          	movzbq %dil,%r15
     207:	90                   	nop
     208:	49 0f b6 c0          	movzbq %r8b,%rax
     20c:	49 0f b6 c8          	movzbq %r8b,%rcx
     210:	49 0f b6 d0          	movzbq %r8b,%rdx
     214:	49 0f b6 d8          	movzbq %r8b,%rbx
     218:	49 0f b6 e0          	movzbq %r8b,%rsp
     21c:	49 0f b6 e8          	movzbq %r8b,%rbp
     220:	49 0f b6 f0          	movzbq %r8b,%rsi
     224:	49 0f b6 f8          	movzbq %r8b,%rdi
     228:	4d 0f b6 c0          	movzbq %r8b,%r8
     22c:	4d 0f b6 c8          	movzbq %r8b,%r9
     230:	4d 0f b6 d0          	movzbq %r8b,%r10
     234:	4d 0f b6 d8          	movzbq %r8b,%r11
     238:	4d 0f b6 e0          	movzbq %r8b,%r12
     23c:	4d 0f b6 e8          	movzbq %r8b,%r13
     240:	4d 0f b6 f0          	movzbq %r8b,%r14
     244:	4d 0f b6 f8          	movzbq %r8b,%r15
     248:	90                   	nop
     249:	49 0f b6 c1          	movzbq %r9b,%rax
     24d:	49 0f b6 c9          	movzbq %r9b,%rcx
     251:	49 0f b6 d1          	movzbq %r9b,%rdx
     255:	49 0f b6 d9          	movzbq %r9b,%rbx
     259:	49 0f b6 e1          	movzbq %r9b,%rsp
     25d:	49 0f b6 e9          	movzbq %r9b,%rbp
     261:	49 0f b6 f1          	movzbq %r9b,%rsi
     265:	49 0f b6 f9          	movzbq %r9b,%rdi
     269:	4d 0f b6 c1          	movzbq %r9b,%r8
     26d:	4d 0f b6 c9          	movzbq %r9b,%r9
     271:	4d 0f b6 d1          	movzbq %r9b,%r10
     275:	4d 0f b6 d9          	movzbq %r9b,%r11
     279:	4d 0f b6 e1          	movzbq %r9b,%r12
     27d:	4d 0f b6 e9          	movzbq %r9b,%r13
     281:	4d 0f b6 f1          	movzbq %r9b,%r14
     285:	4d 0f b6 f9          	movzbq %r9b,%r15
     289:	90                   	nop
     28a:	49 0f b6 c2          	movzbq %r10b,%rax
     28e:	49 0f b6 ca          	movzbq %r10b,%rcx
     292:	49 0f b6 d2          	movzbq %r10b,%rdx
     296:	49 0f b6 da          	movzbq %r10b,%rbx
     29a:	49 0f b6 e2          	movzbq %r10b,%rsp
     29e:	49 0f b6 ea          	movzbq %r10b,%rbp
     2a2:	49 0f b6 f2          	movzbq %r10b,%rsi
     2a6:	49 0f b6 fa          	movzbq %r10b,%rdi
     2aa:	4d 0f b6 c2          	movzbq %r10b,%r8
     2ae:	4d 0f b6 ca          	movzbq %r10b,%r9
     2b2:	4d 0f b6 d2          	movzbq %r10b,%r10
     2b6:	4d 0f b6 da          	movzbq %r10b,%r11
     2ba:	4d 0f b6 e2          	movzbq %r10b,%r12
     2be:	4d 0f b6 ea          	movzbq %r10b,%r13
     2c2:	4d 0f b6 f2          	movzbq %r10b,%r14
     2c6:	4d 0f b6 fa          	movzbq %r10b,%r15
     2ca:	90                   	nop
     2cb:	49 0f b6 c3          	movzbq %r11b,%rax
     2cf:	49 0f b6 cb          	movzbq %r11b,%rcx
     2d3:	49 0f b6 d3          	movzbq %r11b,%rdx
     2d7:	49 0f b6 db          	movzbq %r11b,%rbx
     2db:	49 0f b6 e3          	movzbq %r11b,%rsp
     2df:	49 0f b6 eb          	movzbq %r11b,%rbp
     2e3:	49 0f b6 f3          	movzbq %r11b,%rsi
     2e7:	49 0f b6 fb          	movzbq %r11b,%rdi
     2eb:	4d 0f b6 c3          	movzbq %r11b,%r8
     2ef:	4d 0f b6 cb          	movzbq %r11b,%r9
     2f3:	4d 0f b6 d3          	movzbq %r11b,%r10
     2f7:	4d 0f b6 db          	movzbq %r11b,%r11
     2fb:	4d 0f b6 e3          	movzbq %r11b,%r12
     2ff:	4d 0f b6 eb          	movzbq %r11b,%r13
     303:	4d 0f b6 f3          	movzbq %r11b,%r14
     307:	4d 0f b6 fb          	movzbq %r11b,%r15
     30b:	90                   	nop
     30c:	49 0f b6 c4          	movzbq %r12b,%rax
     310:	49 0f b6 cc          	movzbq %r12b,%rcx
     314:	49 0f b6 d4          	movzbq %r12b,%rdx
     318:	49 0f b6 dc          	movzbq %r12b,%rbx
     31c:	49 0f b6 e4          	movzbq %r12b,%rsp
     320:	49 0f b6 ec          	movzbq %r12b,%rbp
     324:	49 0f b6 f4          	movzbq %r12b,%rsi
     328:	49 0f b6 fc          	movzbq %r12b,%rdi
     32c:	4d 0f b6 c4          	movzbq %r12b,%r8
     330:	4d 0f b6 cc          	movzbq %r12b,%r9
     334:	4d 0f b6 d4          	movzbq %r12b,%r10
     338:	4d 0f b6 dc          	movzbq %r12b,%r11
     33c:	4d 0f b6 e4          	movzbq %r12b,%r12
     340:	4d 0f b6 ec          	movzbq %r12b,%r13
     344:	4d 0f b6 f4          	movzbq %r12b,%r14
     348:	4d 0f b6 fc          	movzbq %r12b,%r15
     34c:	90                   	nop
     34d:	49 0f b6 c5          	movzbq %r13b,%rax
     351:	49 0f b6 cd          	movzbq %r13b,%rcx
     355:	49 0f b6 d5          	movzbq %r13b,%rdx
     359:	49 0f b6 dd          	movzbq %r13b,%rbx
     35d:	49 0f b6 e5          	movzbq %r13b,%rsp
     361:	49 0f b6 ed          	movzbq %r13b,%rbp
     365:	49 0f b6 f5          	movzbq %r13b,%rsi
     369:	49 0f b6 fd          	movzbq %r13b,%rdi
     36d:	4d 0f b6 c5          	movzbq %r13b,%r8
     371:	4d 0f b6 cd          	movzbq %r13b,%r9
     375:	4d 0f b6 d5          	movzbq %r13b,%r10
     379:	4d 0f b6 dd          	movzbq %r13b,%r11
     37d:	4d 0f b6 e5          	movzbq %r13b,%r12
     381:	4d 0f b6 ed          	movzbq %r13b,%r13
     385:	4d 0f b6 f5          	movzbq %r13b,%r14
     389:	4d 0f b6 fd          	movzbq %r13b,%r15
     38d:	90                   	nop
     38e:	49 0f b6 c6          	movzbq %r14b,%rax
     392:	49 0f b6 ce          	movzbq %r14b,%rcx
     396:	49 0f b6 d6          	movzbq %r14b,%rdx
     39a:	49 0f b6 de          	movzbq %r14b,%rbx
     39e:	49 0f b6 e6          	movzbq %r14b,%rsp
     3a2:	49 0f b6 ee          	movzbq %r14b,%rbp
     3a6:	49 0f b6 f6          	movzbq %r14b,%rsi
     3aa:	49 0f b6 fe          	movzbq %r14b,%rdi
     3ae:	4d 0f b6 c6          	movzbq %r14b,%r8
     3b2:	4d 0f b6 ce          	movzbq %r14b,%r9
     3b6:	4d 0f b6 d6          	movzbq %r14b,%r10
     3ba:	4d 0f b6 de          	movzbq %r14b,%r11
     3be:	4d 0f b6 e6          	movzbq %r14b,%r12
     3c2:	4d 0f b6 ee          	movzbq %r14b,%r13
     3c6:	4d 0f b6 f6          	movzbq %r14b,%r14
     3ca:	4d 0f b6 fe          	movzbq %r14b,%r15
     3ce:	90                   	nop
     3cf:	49 0f b6 c7          	movzbq %r15b,%rax
     3d3:	49 0f b6 cf          	movzbq %r15b,%rcx
     3d7:	49 0f b6 d7          	movzbq %r15b,%rdx
     3db:	49 0f b6 df          	movzbq %r15b,%rbx
     3df:	49 0f b6 e7          	movzbq %r15b,%rsp
     3e3:	49 0f b6 ef          	movzbq %r15b,%rbp
     3e7:	49 0f b6 f7          	movzbq %r15b,%rsi
     3eb:	49 0f b6 ff          	movzbq %r15b,%rdi
     3ef:	4d 0f b6 c7          	movzbq %r15b,%r8
     3f3:	4d 0f b6 cf          	movzbq %r15b,%r9
     3f7:	4d 0f b6 d7          	movzbq %r15b,%r10
     3fb:	4d 0f b6 df          	movzbq %r15b,%r11
     3ff:	4d 0f b6 e7          	movzbq %r15b,%r12
     403:	4d 0f b6 ef          	movzbq %r15b,%r13
     407:	4d 0f b6 f7          	movzbq %r15b,%r14
     40b:	4d 0f b6 ff          	movzbq %r15b,%r15
     40f:	90                   	nop
     410:	90                   	nop
     411:	48 0f b7 c0          	movzwq %ax,%rax
     415:	48 0f b7 c8          	movzwq %ax,%rcx
     419:	48 0f b7 d0          	movzwq %ax,%rdx
     41d:	48 0f b7 d8          	movzwq %ax,%rbx
     421:	48 0f b7 e0          	movzwq %ax,%rsp
     425:	48 0f b7 e8          	movzwq %ax,%rbp
     429:	48 0f b7 f0          	movzwq %ax,%rsi
     42d:	48 0f b7 f8          	movzwq %ax,%rdi
     431:	4c 0f b7 c0          	movzwq %ax,%r8
     435:	4c 0f b7 c8          	movzwq %ax,%r9
     439:	4c 0f b7 d0          	movzwq %ax,%r10
     43d:	4c 0f b7 d8          	movzwq %ax,%r11
     441:	4c 0f b7 e0          	movzwq %ax,%r12
     445:	4c 0f b7 e8          	movzwq %ax,%r13
     449:	4c 0f b7 f0          	movzwq %ax,%r14
     44d:	4c 0f b7 f8          	movzwq %ax,%r15
     451:	90                   	nop
     452:	48 0f b7 c1          	movzwq %cx,%rax
     456:	48 0f b7 c9          	movzwq %cx,%rcx
     45a:	48 0f b7 d1          	movzwq %cx,%rdx
     45e:	48 0f b7 d9          	movzwq %cx,%rbx
     462:	48 0f b7 e1          	movzwq %cx,%rsp
     466:	48 0f b7 e9          	movzwq %cx,%rbp
     46a:	48 0f b7 f1          	movzwq %cx,%rsi
     46e:	48 0f b7 f9          	movzwq %cx,%rdi
     472:	4c 0f b7 c1          	movzwq %cx,%r8
     476:	4c 0f b7 c9          	movzwq %cx,%r9
     47a:	4c 0f b7 d1          	movzwq %cx,%r10
     47e:	4c 0f b7 d9          	movzwq %cx,%r11
     482:	4c 0f b7 e1          	movzwq %cx,%r12
     486:	4c 0f b7 e9          	movzwq %cx,%r13
     48a:	4c 0f b7 f1          	movzwq %cx,%r14
     48e:	4c 0f b7 f9          	movzwq %cx,%r15
     492:	90                   	nop
     493:	48 0f b7 c2          	movzwq %dx,%rax
     497:	48 0f b7 ca          	movzwq %dx,%rcx
     49b:	48 0f b7 d2          	movzwq %dx,%rdx
     49f:	48 0f b7 da          	movzwq %dx,%rbx
     4a3:	48 0f b7 e2          	movzwq %dx,%rsp
     4a7:	48 0f b7 ea          	movzwq %dx,%rbp
     4ab:	48 0f b7 f2          	movzwq %dx,%rsi
     4af:	48 0f b7 fa          	movzwq %dx,%rdi
     4b3:	4c 0f b7 c2          	movzwq %dx,%r8
     4b7:	4c 0f b7 ca          	movzwq %dx,%r9
     4bb:	4c 0f b7 d2          	movzwq %dx,%r10
     4bf:	4c 0f b7 da          	movzwq %dx,%r11
     4c3:	4c 0f b7 e2          	movzwq %dx,%r12
     4c7:	4c 0f b7 ea          	movzwq %dx,%r13
     4cb:	4c 0f b7 f2          	movzwq %dx,%r14
     4cf:	4c 0f b7 fa          	movzwq %dx,%r15
     4d3:	90                   	nop
     4d4:	48 0f b7 c3          	movzwq %bx,%rax
     4d8:	48 0f b7 cb          	movzwq %bx,%rcx
     4dc:	48 0f b7 d3          	movzwq %bx,%rdx
     4e0:	48 0f b7 db          	movzwq %bx,%rbx
     4e4:	48 0f b7 e3          	movzwq %bx,%rsp
     4e8:	48 0f b7 eb          	movzwq %bx,%rbp
     4ec:	48 0f b7 f3          	movzwq %bx,%rsi
     4f0:	48 0f b7 fb          	movzwq %bx,%rdi
     4f4:	4c 0f b7 c3          	movzwq %bx,%r8
     4f8:	4c 0f b7 cb          	movzwq %bx,%r9
     4fc:	4c 0f b7 d3          	movzwq %bx,%r10
     500:	4c 0f b7 db          	movzwq %bx,%r11
     504:	4c 0f b7 e3          	movzwq %bx,%r12
     508:	4c 0f b7 eb          	movzwq %bx,%r13
     50c:	4c 0f b7 f3          	movzwq %bx,%r14
     510:	4c 0f b7 fb          	movzwq %bx,%r15
     514:	90                   	nop
     515:	48 0f b7 c4          	movzwq %sp,%rax
     519:	48 0f b7 cc          	movzwq %sp,%rcx
     51d:	48 0f b7 d4          	movzwq %sp,%rdx
     521:	48 0f b7 dc          	movzwq %sp,%rbx
     525:	48 0f b7 e4          	movzwq %sp,%rsp
     529:	48 0f b7 ec          	movzwq %sp,%rbp
     52d:	48 0f b7 f4          	movzwq %sp,%rsi
     531:	48 0f b7 fc          	movzwq %sp,%rdi
     535:	4c 0f b7 c4          	movzwq %sp,%r8
     539:	4c 0f b7 cc          	movzwq %sp,%r9
     53d:	4c 0f b7 d4          	movzwq %sp,%r10
     541:	4c 0f b7 dc          	movzwq %sp,%r11
     545:	4c 0f b7 e4          	movzwq %sp,%r12
     549:	4c 0f b7 ec          	movzwq %sp,%r13
     54d:	4c 0f b7 f4          	movzwq %sp,%r14
     551:	4c 0f b7 fc          	movzwq %sp,%r15
     555:	90                   	nop
     556:	48 0f b7 c5          	movzwq %bp,%rax
     55a:	48 0f b7 cd          	movzwq %bp,%rcx
     55e:	48 0f b7 d5          	movzwq %bp,%rdx
     562:	48 0f b7 dd          	movzwq %bp,%rbx
     566:	48 0f b7 e5          	movzwq %bp,%rsp
     56a:	48 0f b7 ed          	movzwq %bp,%rbp
     56e:	48 0f b7 f5          	movzwq %bp,%rsi
     572:	48 0f b7 fd          	movzwq %bp,%rdi
     576:	4c 0f b7 c5          	movzwq %bp,%r8
     57a:	4c 0f b7 cd          	movzwq %bp,%r9
     57e:	4c 0f b7 d5          	movzwq %bp,%r10
     582:	4c 0f b7 dd          	movzwq %bp,%r11
     586:	4c 0f b7 e5          	movzwq %bp,%r12
     58a:	4c 0f b7 ed          	movzwq %bp,%r13
     58e:	4c 0f b7 f5          	movzwq %bp,%r14
     592:	4c 0f b7 fd          	movzwq %bp,%r15
     596:	90                   	nop
     597:	48 0f b7 c6          	movzwq %si,%rax
     59b:	48 0f b7 ce          	movzwq %si,%rcx
     59f:	48 0f b7 d6          	movzwq %si,%rdx
     5a3:	48 0f b7 de          	movzwq %si,%rbx
     5a7:	48 0f b7 e6          	movzwq %si,%rsp
     5ab:	48 0f b7 ee          	movzwq %si,%rbp
     5af:	48 0f b7 f6          	movzwq %si,%rsi
     5b3:	48 0f b7 fe          	movzwq %si,%rdi
     5b7:	4c 0f b7 c6          	movzwq %si,%r8
     5bb:	4c 0f b7 ce          	movzwq %si,%r9
     5bf:	4c 0f b7 d6          	movzwq %si,%r10
     5c3:	4c 0f b7 de          	movzwq %si,%r11
     5c7:	4c 0f b7 e6          	movzwq %si,%r12
     5cb:	4c 0f b7 ee          	movzwq %si,%r13
     5cf:	4c 0f b7 f6          	movzwq %si,%r14
     5d3:	4c 0f b7 fe          	movzwq %si,%r15
     5d7:	90                   	nop
     5d8:	48 0f b7 c7          	movzwq %di,%rax
     5dc:	48 0f b7 cf          	movzwq %di,%rcx
     5e0:	48 0f b7 d7          	movzwq %di,%rdx
     5e4:	48 0f b7 df          	movzwq %di,%rbx
     5e8:	48 0f b7 e7          	movzwq %di,%rsp
     5ec:	48 0f b7 ef          	movzwq %di,%rbp
     5f0:	48 0f b7 f7          	movzwq %di,%rsi
     5f4:	48 0f b7 ff          	movzwq %di,%rdi
     5f8:	4c 0f b7 c7          	movzwq %di,%r8
     5fc:	4c 0f b7 cf          	movzwq %di,%r9
     600:	4c 0f b7 d7          	movzwq %di,%r10
     604:	4c 0f b7 df          	movzwq %di,%r11
     608:	4c 0f b7 e7          	movzwq %di,%r12
     60c:	4c 0f b7 ef          	movzwq %di,%r13
     610:	4c 0f b7 f7          	movzwq %di,%r14
     614:	4c 0f b7 ff          	movzwq %di,%r15
     618:	90                   	nop
     619:	49 0f b7 c0          	movzwq %r8w,%rax
     61d:	49 0f b7 c8          	movzwq %r8w,%rcx
     621:	49 0f b7 d0          	movzwq %r8w,%rdx
     625:	49 0f b7 d8          	movzwq %r8w,%rbx
     629:	49 0f b7 e0          	movzwq %r8w,%rsp
     62d:	49 0f b7 e8          	movzwq %r8w,%rbp
     631:	49 0f b7 f0          	movzwq %r8w,%rsi
     635:	49 0f b7 f8          	movzwq %r8w,%rdi
     639:	4d 0f b7 c0          	movzwq %r8w,%r8
     63d:	4d 0f b7 c8          	movzwq %r8w,%r9
     641:	4d 0f b7 d0          	movzwq %r8w,%r10
     645:	4d 0f b7 d8          	movzwq %r8w,%r11
     649:	4d 0f b7 e0          	movzwq %r8w,%r12
     64d:	4d 0f b7 e8          	movzwq %r8w,%r13
     651:	4d 0f b7 f0          	movzwq %r8w,%r14
     655:	4d 0f b7 f8          	movzwq %r8w,%r15
     659:	90                   	nop
     65a:	49 0f b7 c1          	movzwq %r9w,%rax
     65e:	49 0f b7 c9          	movzwq %r9w,%rcx
     662:	49 0f b7 d1          	movzwq %r9w,%rdx
     666:	49 0f b7 d9          	movzwq %r9w,%rbx
     66a:	49 0f b7 e1          	movzwq %r9w,%rsp
     66e:	49 0f b7 e9          	movzwq %r9w,%rbp
     672:	49 0f b7 f1          	movzwq %r9w,%rsi
     676:	49 0f b7 f9          	movzwq %r9w,%rdi
     67a:	4d 0f b7 c1          	movzwq %r9w,%r8
     67e:	4d 0f b7 c9          	movzwq %r9w,%r9
     682:	4d 0f b7 d1          	movzwq %r9w,%r10
     686:	4d 0f b7 d9          	movzwq %r9w,%r11
     68a:	4d 0f b7 e1          	movzwq %r9w,%r12
     68e:	4d 0f b7 e9          	movzwq %r9w,%r13
     692:	4d 0f b7 f1          	movzwq %r9w,%r14
     696:	4d 0f b7 f9          	movzwq %r9w,%r15
     69a:	90                   	nop
     69b:	49 0f b7 c2          	movzwq %r10w,%rax
     69f:	49 0f b7 ca          	movzwq %r10w,%rcx
     6a3:	49 0f b7 d2          	movzwq %r10w,%rdx
     6a7:	49 0f b7 da          	movzwq %r10w,%rbx
     6ab:	49 0f b7 e2          	movzwq %r10w,%rsp
     6af:	49 0f b7 ea          	movzwq %r10w,%rbp
     6b3:	49 0f b7 f2          	movzwq %r10w,%rsi
     6b7:	49 0f b7 fa          	movzwq %r10w,%rdi
     6bb:	4d 0f b7 c2          	movzwq %r10w,%r8
     6bf:	4d 0f b7 ca          	movzwq %r10w,%r9
     6c3:	4d 0f b7 d2          	movzwq %r10w,%r10
     6c7:	4d 0f b7 da          	movzwq %r10w,%r11
     6cb:	4d 0f b7 e2          	movzwq %r10w,%r12
     6cf:	4d 0f b7 ea          	movzwq %r10w,%r13
     6d3:	4d 0f b7 f2          	movzwq %r10w,%r14
     6d7:	4d 0f b7 fa          	movzwq %r10w,%r15
     6db:	90                   	nop
     6dc:	49 0f b7 c3          	movzwq %r11w,%rax
     6e0:	49 0f b7 cb          	movzwq %r11w,%rcx
     6e4:	49 0f b7 d3          	movzwq %r11w,%rdx
     6e8:	49 0f b7 db          	movzwq %r11w,%rbx
     6ec:	49 0f b7 e3          	movzwq %r11w,%rsp
     6f0:	49 0f b7 eb          	movzwq %r11w,%rbp
     6f4:	49 0f b7 f3          	movzwq %r11w,%rsi
     6f8:	49 0f b7 fb          	movzwq %r11w,%rdi
     6fc:	4d 0f b7 c3          	movzwq %r11w,%r8
     700:	4d 0f b7 cb          	movzwq %r11w,%r9
     704:	4d 0f b7 d3          	movzwq %r11w,%r10
     708:	4d 0f b7 db          	movzwq %r11w,%r11
     70c:	4d 0f b7 e3          	movzwq %r11w,%r12
     710:	4d 0f b7 eb          	movzwq %r11w,%r13
     714:	4d 0f b7 f3          	movzwq %r11w,%r14
     718:	4d 0f b7 fb          	movzwq %r11w,%r15
     71c:	90                   	nop
     71d:	49 0f b7 c4          	movzwq %r12w,%rax
     721:	49 0f b7 cc          	movzwq %r12w,%rcx
     725:	49 0f b7 d4          	movzwq %r12w,%rdx
     729:	49 0f b7 dc          	movzwq %r12w,%rbx
     72d:	49 0f b7 e4          	movzwq %r12w,%rsp
     731:	49 0f b7 ec          	movzwq %r12w,%rbp
     735:	49 0f b7 f4          	movzwq %r12w,%rsi
     739:	49 0f b7 fc          	movzwq %r12w,%rdi
     73d:	4d 0f b7 c4          	movzwq %r12w,%r8
     741:	4d 0f b7 cc          	movzwq %r12w,%r9
     745:	4d 0f b7 d4          	movzwq %r12w,%r10
     749:	4d 0f b7 dc          	movzwq %r12w,%r11
     74d:	4d 0f b7 e4          	movzwq %r12w,%r12
     751:	4d 0f b7 ec          	movzwq %r12w,%r13
     755:	4d 0f b7 f4          	movzwq %r12w,%r14
     759:	4d 0f b7 fc          	movzwq %r12w,%r15
     75d:	90                   	nop
     75e:	49 0f b7 c5          	movzwq %r13w,%rax
     762:	49 0f b7 cd          	movzwq %r13w,%rcx
     766:	49 0f b7 d5          	movzwq %r13w,%rdx
     76a:	49 0f b7 dd          	movzwq %r13w,%rbx
     76e:	49 0f b7 e5          	movzwq %r13w,%rsp
     772:	49 0f b7 ed          	movzwq %r13w,%rbp
     776:	49 0f b7 f5          	movzwq %r13w,%rsi
     77a:	49 0f b7 fd          	movzwq %r13w,%rdi
     77e:	4d 0f b7 c5          	movzwq %r13w,%r8
     782:	4d 0f b7 cd          	movzwq %r13w,%r9
     786:	4d 0f b7 d5          	movzwq %r13w,%r10
     78a:	4d 0f b7 dd          	movzwq %r13w,%r11
     78e:	4d 0f b7 e5          	movzwq %r13w,%r12
     792:	4d 0f b7 ed          	movzwq %r13w,%r13
     796:	4d 0f b7 f5          	movzwq %r13w,%r14
     79a:	4d 0f b7 fd          	movzwq %r13w,%r15
     79e:	90                   	nop
     79f:	49 0f b7 c6          	movzwq %r14w,%rax
     7a3:	49 0f b7 ce          	movzwq %r14w,%rcx
     7a7:	49 0f b7 d6          	movzwq %r14w,%rdx
     7ab:	49 0f b7 de          	movzwq %r14w,%rbx
     7af:	49 0f b7 e6          	movzwq %r14w,%rsp
     7b3:	49 0f b7 ee          	movzwq %r14w,%rbp
     7b7:	49 0f b7 f6          	movzwq %r14w,%rsi
     7bb:	49 0f b7 fe          	movzwq %r14w,%rdi
     7bf:	4d 0f b7 c6          	movzwq %r14w,%r8
     7c3:	4d 0f b7 ce          	movzwq %r14w,%r9
     7c7:	4d 0f b7 d6          	movzwq %r14w,%r10
     7cb:	4d 0f b7 de          	movzwq %r14w,%r11
     7cf:	4d 0f b7 e6          	movzwq %r14w,%r12
     7d3:	4d 0f b7 ee          	movzwq %r14w,%r13
     7d7:	4d 0f b7 f6          	movzwq %r14w,%r14
     7db:	4d 0f b7 fe          	movzwq %r14w,%r15
     7df:	90                   	nop
     7e0:	49 0f b7 c7          	movzwq %r15w,%rax
     7e4:	49 0f b7 cf          	movzwq %r15w,%rcx
     7e8:	49 0f b7 d7          	movzwq %r15w,%rdx
     7ec:	49 0f b7 df          	movzwq %r15w,%rbx
     7f0:	49 0f b7 e7          	movzwq %r15w,%rsp
     7f4:	49 0f b7 ef          	movzwq %r15w,%rbp
     7f8:	49 0f b7 f7          	movzwq %r15w,%rsi
     7fc:	49 0f b7 ff          	movzwq %r15w,%rdi
     800:	4d 0f b7 c7          	movzwq %r15w,%r8
     804:	4d 0f b7 cf          	movzwq %r15w,%r9
     808:	4d 0f b7 d7          	movzwq %r15w,%r10
     80c:	4d 0f b7 df          	movzwq %r15w,%r11
     810:	4d 0f b7 e7          	movzwq %r15w,%r12
     814:	4d 0f b7 ef          	movzwq %r15w,%r13
     818:	4d 0f b7 f7          	movzwq %r15w,%r14
     81c:	4d 0f b7 ff          	movzwq %r15w,%r15
     820:	c3                   	retq   
     821:	66 66 2e 0f 1f 84 00 	data16 nopw %cs:0x0(%rax,%rax,1)
     828:	00 00 00 00 
     82c:	0f 1f 40 00          	nopl   0x0(%rax)

0000000000000830 <Movsx>:
     830:	48 0f be c0          	movsbq %al,%rax
     834:	48 0f be c8          	movsbq %al,%rcx
     838:	48 0f be d0          	movsbq %al,%rdx
     83c:	48 0f be d8          	movsbq %al,%rbx
     840:	48 0f be e0          	movsbq %al,%rsp
     844:	48 0f be e8          	movsbq %al,%rbp
     848:	48 0f be f0          	movsbq %al,%rsi
     84c:	48 0f be f8          	movsbq %al,%rdi
     850:	4c 0f be c0          	movsbq %al,%r8
     854:	4c 0f be c8          	movsbq %al,%r9
     858:	4c 0f be d0          	movsbq %al,%r10
     85c:	4c 0f be d8          	movsbq %al,%r11
     860:	4c 0f be e0          	movsbq %al,%r12
     864:	4c 0f be e8          	movsbq %al,%r13
     868:	4c 0f be f0          	movsbq %al,%r14
     86c:	4c 0f be f8          	movsbq %al,%r15
     870:	90                   	nop
     871:	48 0f be c1          	movsbq %cl,%rax
     875:	48 0f be c9          	movsbq %cl,%rcx
     879:	48 0f be d1          	movsbq %cl,%rdx
     87d:	48 0f be d9          	movsbq %cl,%rbx
     881:	48 0f be e1          	movsbq %cl,%rsp
     885:	48 0f be e9          	movsbq %cl,%rbp
     889:	48 0f be f1          	movsbq %cl,%rsi
     88d:	48 0f be f9          	movsbq %cl,%rdi
     891:	4c 0f be c1          	movsbq %cl,%r8
     895:	4c 0f be c9          	movsbq %cl,%r9
     899:	4c 0f be d1          	movsbq %cl,%r10
     89d:	4c 0f be d9          	movsbq %cl,%r11
     8a1:	4c 0f be e1          	movsbq %cl,%r12
     8a5:	4c 0f be e9          	movsbq %cl,%r13
     8a9:	4c 0f be f1          	movsbq %cl,%r14
     8ad:	4c 0f be f9          	movsbq %cl,%r15
     8b1:	90                   	nop
     8b2:	48 0f be c2          	movsbq %dl,%rax
     8b6:	48 0f be ca          	movsbq %dl,%rcx
     8ba:	48 0f be d2          	movsbq %dl,%rdx
     8be:	48 0f be da          	movsbq %dl,%rbx
     8c2:	48 0f be e2          	movsbq %dl,%rsp
     8c6:	48 0f be ea          	movsbq %dl,%rbp
     8ca:	48 0f be f2          	movsbq %dl,%rsi
     8ce:	48 0f be fa          	movsbq %dl,%rdi
     8d2:	4c 0f be c2          	movsbq %dl,%r8
     8d6:	4c 0f be ca          	movsbq %dl,%r9
     8da:	4c 0f be d2          	movsbq %dl,%r10
     8de:	4c 0f be da          	movsbq %dl,%r11
     8e2:	4c 0f be e2          	movsbq %dl,%r12
     8e6:	4c 0f be ea          	movsbq %dl,%r13
     8ea:	4c 0f be f2          	movsbq %dl,%r14
     8ee:	4c 0f be fa          	movsbq %dl,%r15
     8f2:	90                   	nop
     8f3:	48 0f be c3          	movsbq %bl,%rax
     8f7:	48 0f be cb          	movsbq %bl,%rcx
     8fb:	48 0f be d3          	movsbq %bl,%rdx
     8ff:	48 0f be db          	movsbq %bl,%rbx
     903:	48 0f be e3          	movsbq %bl,%rsp
     907:	48 0f be eb          	movsbq %bl,%rbp
     90b:	48 0f be f3          	movsbq %bl,%rsi
     90f:	48 0f be fb          	movsbq %bl,%rdi
     913:	4c 0f be c3          	movsbq %bl,%r8
     917:	4c 0f be cb          	movsbq %bl,%r9
     91b:	4c 0f be d3          	movsbq %bl,%r10
     91f:	4c 0f be db          	movsbq %bl,%r11
     923:	4c 0f be e3          	movsbq %bl,%r12
     927:	4c 0f be eb          	movsbq %bl,%r13
     92b:	4c 0f be f3          	movsbq %bl,%r14
     92f:	4c 0f be fb          	movsbq %bl,%r15
     933:	90                   	nop
     934:	48 0f be c4          	movsbq %spl,%rax
     938:	48 0f be cc          	movsbq %spl,%rcx
     93c:	48 0f be d4          	movsbq %spl,%rdx
     940:	48 0f be dc          	movsbq %spl,%rbx
     944:	48 0f be e4          	movsbq %spl,%rsp
     948:	48 0f be ec          	movsbq %spl,%rbp
     94c:	48 0f be f4          	movsbq %spl,%rsi
     950:	48 0f be fc          	movsbq %spl,%rdi
     954:	4c 0f be c4          	movsbq %spl,%r8
     958:	4c 0f be cc          	movsbq %spl,%r9
     95c:	4c 0f be d4          	movsbq %spl,%r10
     960:	4c 0f be dc          	movsbq %spl,%r11
     964:	4c 0f be e4          	movsbq %spl,%r12
     968:	4c 0f be ec          	movsbq %spl,%r13
     96c:	4c 0f be f4          	movsbq %spl,%r14
     970:	4c 0f be fc          	movsbq %spl,%r15
     974:	90                   	nop
     975:	48 0f be c5          	movsbq %bpl,%rax
     979:	48 0f be cd          	movsbq %bpl,%rcx
     97d:	48 0f be d5          	movsbq %bpl,%rdx
     981:	48 0f be dd          	movsbq %bpl,%rbx
     985:	48 0f be e5          	movsbq %bpl,%rsp
     989:	48 0f be ed          	movsbq %bpl,%rbp
     98d:	48 0f be f5          	movsbq %bpl,%rsi
     991:	48 0f be fd          	movsbq %bpl,%rdi
     995:	4c 0f be c5          	movsbq %bpl,%r8
     999:	4c 0f be cd          	movsbq %bpl,%r9
     99d:	4c 0f be d5          	movsbq %bpl,%r10
     9a1:	4c 0f be dd          	movsbq %bpl,%r11
     9a5:	4c 0f be e5          	movsbq %bpl,%r12
     9a9:	4c 0f be ed          	movsbq %bpl,%r13
     9ad:	4c 0f be f5          	movsbq %bpl,%r14
     9b1:	4c 0f be fd          	movsbq %bpl,%r15
     9b5:	90                   	nop
     9b6:	48 0f be c6          	movsbq %sil,%rax
     9ba:	48 0f be ce          	movsbq %sil,%rcx
     9be:	48 0f be d6          	movsbq %sil,%rdx
     9c2:	48 0f be de          	movsbq %sil,%rbx
     9c6:	48 0f be e6          	movsbq %sil,%rsp
     9ca:	48 0f be ee          	movsbq %sil,%rbp
     9ce:	48 0f be f6          	movsbq %sil,%rsi
     9d2:	48 0f be fe          	movsbq %sil,%rdi
     9d6:	4c 0f be c6          	movsbq %sil,%r8
     9da:	4c 0f be ce          	movsbq %sil,%r9
     9de:	4c 0f be d6          	movsbq %sil,%r10
     9e2:	4c 0f be de          	movsbq %sil,%r11
     9e6:	4c 0f be e6          	movsbq %sil,%r12
     9ea:	4c 0f be ee          	movsbq %sil,%r13
     9ee:	4c 0f be f6          	movsbq %sil,%r14
     9f2:	4c 0f be fe          	movsbq %sil,%r15
     9f6:	90                   	nop
     9f7:	48 0f be c7          	movsbq %dil,%rax
     9fb:	48 0f be cf          	movsbq %dil,%rcx
     9ff:	48 0f be d7          	movsbq %dil,%rdx
     a03:	48 0f be df          	movsbq %dil,%rbx
     a07:	48 0f be e7          	movsbq %dil,%rsp
     a0b:	48 0f be ef          	movsbq %dil,%rbp
     a0f:	48 0f be f7          	movsbq %dil,%rsi
     a13:	48 0f be ff          	movsbq %dil,%rdi
     a17:	4c 0f be c7          	movsbq %dil,%r8
     a1b:	4c 0f be cf          	movsbq %dil,%r9
     a1f:	4c 0f be d7          	movsbq %dil,%r10
     a23:	4c 0f be df          	movsbq %dil,%r11
     a27:	4c 0f be e7          	movsbq %dil,%r12
     a2b:	4c 0f be ef          	movsbq %dil,%r13
     a2f:	4c 0f be f7          	movsbq %dil,%r14
     a33:	4c 0f be ff          	movsbq %dil,%r15
     a37:	90                   	nop
     a38:	49 0f be c0          	movsbq %r8b,%rax
     a3c:	49 0f be c8          	movsbq %r8b,%rcx
     a40:	49 0f be d0          	movsbq %r8b,%rdx
     a44:	49 0f be d8          	movsbq %r8b,%rbx
     a48:	49 0f be e0          	movsbq %r8b,%rsp
     a4c:	49 0f be e8          	movsbq %r8b,%rbp
     a50:	49 0f be f0          	movsbq %r8b,%rsi
     a54:	49 0f be f8          	movsbq %r8b,%rdi
     a58:	4d 0f be c0          	movsbq %r8b,%r8
     a5c:	4d 0f be c8          	movsbq %r8b,%r9
     a60:	4d 0f be d0          	movsbq %r8b,%r10
     a64:	4d 0f be d8          	movsbq %r8b,%r11
     a68:	4d 0f be e0          	movsbq %r8b,%r12
     a6c:	4d 0f be e8          	movsbq %r8b,%r13
     a70:	4d 0f be f0          	movsbq %r8b,%r14
     a74:	4d 0f be f8          	movsbq %r8b,%r15
     a78:	90                   	nop
     a79:	49 0f be c1          	movsbq %r9b,%rax
     a7d:	49 0f be c9          	movsbq %r9b,%rcx
     a81:	49 0f be d1          	movsbq %r9b,%rdx
     a85:	49 0f be d9          	movsbq %r9b,%rbx
     a89:	49 0f be e1          	movsbq %r9b,%rsp
     a8d:	49 0f be e9          	movsbq %r9b,%rbp
     a91:	49 0f be f1          	movsbq %r9b,%rsi
     a95:	49 0f be f9          	movsbq %r9b,%rdi
     a99:	4d 0f be c1          	movsbq %r9b,%r8
     a9d:	4d 0f be c9          	movsbq %r9b,%r9
     aa1:	4d 0f be d1          	movsbq %r9b,%r10
     aa5:	4d 0f be d9          	movsbq %r9b,%r11
     aa9:	4d 0f be e1          	movsbq %r9b,%r12
     aad:	4d 0f be e9          	movsbq %r9b,%r13
     ab1:	4d 0f be f1          	movsbq %r9b,%r14
     ab5:	4d 0f be f9          	movsbq %r9b,%r15
     ab9:	90                   	nop
     aba:	49 0f be c2          	movsbq %r10b,%rax
     abe:	49 0f be ca          	movsbq %r10b,%rcx
     ac2:	49 0f be d2          	movsbq %r10b,%rdx
     ac6:	49 0f be da          	movsbq %r10b,%rbx
     aca:	49 0f be e2          	movsbq %r10b,%rsp
     ace:	49 0f be ea          	movsbq %r10b,%rbp
     ad2:	49 0f be f2          	movsbq %r10b,%rsi
     ad6:	49 0f be fa          	movsbq %r10b,%rdi
     ada:	4d 0f be c2          	movsbq %r10b,%r8
     ade:	4d 0f be ca          	movsbq %r10b,%r9
     ae2:	4d 0f be d2          	movsbq %r10b,%r10
     ae6:	4d 0f be da          	movsbq %r10b,%r11
     aea:	4d 0f be e2          	movsbq %r10b,%r12
     aee:	4d 0f be ea          	movsbq %r10b,%r13
     af2:	4d 0f be f2          	movsbq %r10b,%r14
     af6:	4d 0f be fa          	movsbq %r10b,%r15
     afa:	90                   	nop
     afb:	49 0f be c3          	movsbq %r11b,%rax
     aff:	49 0f be cb          	movsbq %r11b,%rcx
     b03:	49 0f be d3          	movsbq %r11b,%rdx
     b07:	49 0f be db          	movsbq %r11b,%rbx
     b0b:	49 0f be e3          	movsbq %r11b,%rsp
     b0f:	49 0f be eb          	movsbq %r11b,%rbp
     b13:	49 0f be f3          	movsbq %r11b,%rsi
     b17:	49 0f be fb          	movsbq %r11b,%rdi
     b1b:	4d 0f be c3          	movsbq %r11b,%r8
     b1f:	4d 0f be cb          	movsbq %r11b,%r9
     b23:	4d 0f be d3          	movsbq %r11b,%r10
     b27:	4d 0f be db          	movsbq %r11b,%r11
     b2b:	4d 0f be e3          	movsbq %r11b,%r12
     b2f:	4d 0f be eb          	movsbq %r11b,%r13
     b33:	4d 0f be f3          	movsbq %r11b,%r14
     b37:	4d 0f be fb          	movsbq %r11b,%r15
     b3b:	90                   	nop
     b3c:	49 0f be c4          	movsbq %r12b,%rax
     b40:	49 0f be cc          	movsbq %r12b,%rcx
     b44:	49 0f be d4          	movsbq %r12b,%rdx
     b48:	49 0f be dc          	movsbq %r12b,%rbx
     b4c:	49 0f be e4          	movsbq %r12b,%rsp
     b50:	49 0f be ec          	movsbq %r12b,%rbp
     b54:	49 0f be f4          	movsbq %r12b,%rsi
     b58:	49 0f be fc          	movsbq %r12b,%rdi
     b5c:	4d 0f be c4          	movsbq %r12b,%r8
     b60:	4d 0f be cc          	movsbq %r12b,%r9
     b64:	4d 0f be d4          	movsbq %r12b,%r10
     b68:	4d 0f be dc          	movsbq %r12b,%r11
     b6c:	4d 0f be e4          	movsbq %r12b,%r12
     b70:	4d 0f be ec          	movsbq %r12b,%r13
     b74:	4d 0f be f4          	movsbq %r12b,%r14
     b78:	4d 0f be fc          	movsbq %r12b,%r15
     b7c:	90                   	nop
     b7d:	49 0f be c5          	movsbq %r13b,%rax
     b81:	49 0f be cd          	movsbq %r13b,%rcx
     b85:	49 0f be d5          	movsbq %r13b,%rdx
     b89:	49 0f be dd          	movsbq %r13b,%rbx
     b8d:	49 0f be e5          	movsbq %r13b,%rsp
     b91:	49 0f be ed          	movsbq %r13b,%rbp
     b95:	49 0f be f5          	movsbq %r13b,%rsi
     b99:	49 0f be fd          	movsbq %r13b,%rdi
     b9d:	4d 0f be c5          	movsbq %r13b,%r8
     ba1:	4d 0f be cd          	movsbq %r13b,%r9
     ba5:	4d 0f be d5          	movsbq %r13b,%r10
     ba9:	4d 0f be dd          	movsbq %r13b,%r11
     bad:	4d 0f be e5          	movsbq %r13b,%r12
     bb1:	4d 0f be ed          	movsbq %r13b,%r13
     bb5:	4d 0f be f5          	movsbq %r13b,%r14
     bb9:	4d 0f be fd          	movsbq %r13b,%r15
     bbd:	90                   	nop
     bbe:	49 0f be c6          	movsbq %r14b,%rax
     bc2:	49 0f be ce          	movsbq %r14b,%rcx
     bc6:	49 0f be d6          	movsbq %r14b,%rdx
     bca:	49 0f be de          	movsbq %r14b,%rbx
     bce:	49 0f be e6          	movsbq %r14b,%rsp
     bd2:	49 0f be ee          	movsbq %r14b,%rbp
     bd6:	49 0f be f6          	movsbq %r14b,%rsi
     bda:	49 0f be fe          	movsbq %r14b,%rdi
     bde:	4d 0f be c6          	movsbq %r14b,%r8
     be2:	4d 0f be ce          	movsbq %r14b,%r9
     be6:	4d 0f be d6          	movsbq %r14b,%r10
     bea:	4d 0f be de          	movsbq %r14b,%r11
     bee:	4d 0f be e6          	movsbq %r14b,%r12
     bf2:	4d 0f be ee          	movsbq %r14b,%r13
     bf6:	4d 0f be f6          	movsbq %r14b,%r14
     bfa:	4d 0f be fe          	movsbq %r14b,%r15
     bfe:	90                   	nop
     bff:	49 0f be c7          	movsbq %r15b,%rax
     c03:	49 0f be cf          	movsbq %r15b,%rcx
     c07:	49 0f be d7          	movsbq %r15b,%rdx
     c0b:	49 0f be df          	movsbq %r15b,%rbx
     c0f:	49 0f be e7          	movsbq %r15b,%rsp
     c13:	49 0f be ef          	movsbq %r15b,%rbp
     c17:	49 0f be f7          	movsbq %r15b,%rsi
     c1b:	49 0f be ff          	movsbq %r15b,%rdi
     c1f:	4d 0f be c7          	movsbq %r15b,%r8
     c23:	4d 0f be cf          	movsbq %r15b,%r9
     c27:	4d 0f be d7          	movsbq %r15b,%r10
     c2b:	4d 0f be df          	movsbq %r15b,%r11
     c2f:	4d 0f be e7          	movsbq %r15b,%r12
     c33:	4d 0f be ef          	movsbq %r15b,%r13
     c37:	4d 0f be f7          	movsbq %r15b,%r14
     c3b:	4d 0f be ff          	movsbq %r15b,%r15
     c3f:	90                   	nop
     c40:	90                   	nop
     c41:	48 0f bf c0          	movswq %ax,%rax
     c45:	48 0f bf c8          	movswq %ax,%rcx
     c49:	48 0f bf d0          	movswq %ax,%rdx
     c4d:	48 0f bf d8          	movswq %ax,%rbx
     c51:	48 0f bf e0          	movswq %ax,%rsp
     c55:	48 0f bf e8          	movswq %ax,%rbp
     c59:	48 0f bf f0          	movswq %ax,%rsi
     c5d:	48 0f bf f8          	movswq %ax,%rdi
     c61:	4c 0f bf c0          	movswq %ax,%r8
     c65:	4c 0f bf c8          	movswq %ax,%r9
     c69:	4c 0f bf d0          	movswq %ax,%r10
     c6d:	4c 0f bf d8          	movswq %ax,%r11
     c71:	4c 0f bf e0          	movswq %ax,%r12
     c75:	4c 0f bf e8          	movswq %ax,%r13
     c79:	4c 0f bf f0          	movswq %ax,%r14
     c7d:	4c 0f bf f8          	movswq %ax,%r15
     c81:	90                   	nop
     c82:	48 0f bf c1          	movswq %cx,%rax
     c86:	48 0f bf c9          	movswq %cx,%rcx
     c8a:	48 0f bf d1          	movswq %cx,%rdx
     c8e:	48 0f bf d9          	movswq %cx,%rbx
     c92:	48 0f bf e1          	movswq %cx,%rsp
     c96:	48 0f bf e9          	movswq %cx,%rbp
     c9a:	48 0f bf f1          	movswq %cx,%rsi
     c9e:	48 0f bf f9          	movswq %cx,%rdi
     ca2:	4c 0f bf c1          	movswq %cx,%r8
     ca6:	4c 0f bf c9          	movswq %cx,%r9
     caa:	4c 0f bf d1          	movswq %cx,%r10
     cae:	4c 0f bf d9          	movswq %cx,%r11
     cb2:	4c 0f bf e1          	movswq %cx,%r12
     cb6:	4c 0f bf e9          	movswq %cx,%r13
     cba:	4c 0f bf f1          	movswq %cx,%r14
     cbe:	4c 0f bf f9          	movswq %cx,%r15
     cc2:	90                   	nop
     cc3:	48 0f bf c2          	movswq %dx,%rax
     cc7:	48 0f bf ca          	movswq %dx,%rcx
     ccb:	48 0f bf d2          	movswq %dx,%rdx
     ccf:	48 0f bf da          	movswq %dx,%rbx
     cd3:	48 0f bf e2          	movswq %dx,%rsp
     cd7:	48 0f bf ea          	movswq %dx,%rbp
     cdb:	48 0f bf f2          	movswq %dx,%rsi
     cdf:	48 0f bf fa          	movswq %dx,%rdi
     ce3:	4c 0f bf c2          	movswq %dx,%r8
     ce7:	4c 0f bf ca          	movswq %dx,%r9
     ceb:	4c 0f bf d2          	movswq %dx,%r10
     cef:	4c 0f bf da          	movswq %dx,%r11
     cf3:	4c 0f bf e2          	movswq %dx,%r12
     cf7:	4c 0f bf ea          	movswq %dx,%r13
     cfb:	4c 0f bf f2          	movswq %dx,%r14
     cff:	4c 0f bf fa          	movswq %dx,%r15
     d03:	90                   	nop
     d04:	48 0f bf c3          	movswq %bx,%rax
     d08:	48 0f bf cb          	movswq %bx,%rcx
     d0c:	48 0f bf d3          	movswq %bx,%rdx
     d10:	48 0f bf db          	movswq %bx,%rbx
     d14:	48 0f bf e3          	movswq %bx,%rsp
     d18:	48 0f bf eb          	movswq %bx,%rbp
     d1c:	48 0f bf f3          	movswq %bx,%rsi
     d20:	48 0f bf fb          	movswq %bx,%rdi
     d24:	4c 0f bf c3          	movswq %bx,%r8
     d28:	4c 0f bf cb          	movswq %bx,%r9
     d2c:	4c 0f bf d3          	movswq %bx,%r10
     d30:	4c 0f bf db          	movswq %bx,%r11
     d34:	4c 0f bf e3          	movswq %bx,%r12
     d38:	4c 0f bf eb          	movswq %bx,%r13
     d3c:	4c 0f bf f3          	movswq %bx,%r14
     d40:	4c 0f bf fb          	movswq %bx,%r15
     d44:	90                   	nop
     d45:	48 0f bf c4          	movswq %sp,%rax
     d49:	48 0f bf cc          	movswq %sp,%rcx
     d4d:	48 0f bf d4          	movswq %sp,%rdx
     d51:	48 0f bf dc          	movswq %sp,%rbx
     d55:	48 0f bf e4          	movswq %sp,%rsp
     d59:	48 0f bf ec          	movswq %sp,%rbp
     d5d:	48 0f bf f4          	movswq %sp,%rsi
     d61:	48 0f bf fc          	movswq %sp,%rdi
     d65:	4c 0f bf c4          	movswq %sp,%r8
     d69:	4c 0f bf cc          	movswq %sp,%r9
     d6d:	4c 0f bf d4          	movswq %sp,%r10
     d71:	4c 0f bf dc          	movswq %sp,%r11
     d75:	4c 0f bf e4          	movswq %sp,%r12
     d79:	4c 0f bf ec          	movswq %sp,%r13
     d7d:	4c 0f bf f4          	movswq %sp,%r14
     d81:	4c 0f bf fc          	movswq %sp,%r15
     d85:	90                   	nop
     d86:	48 0f bf c5          	movswq %bp,%rax
     d8a:	48 0f bf cd          	movswq %bp,%rcx
     d8e:	48 0f bf d5          	movswq %bp,%rdx
     d92:	48 0f bf dd          	movswq %bp,%rbx
     d96:	48 0f bf e5          	movswq %bp,%rsp
     d9a:	48 0f bf ed          	movswq %bp,%rbp
     d9e:	48 0f bf f5          	movswq %bp,%rsi
     da2:	48 0f bf fd          	movswq %bp,%rdi
     da6:	4c 0f bf c5          	movswq %bp,%r8
     daa:	4c 0f bf cd          	movswq %bp,%r9
     dae:	4c 0f bf d5          	movswq %bp,%r10
     db2:	4c 0f bf dd          	movswq %bp,%r11
     db6:	4c 0f bf e5          	movswq %bp,%r12
     dba:	4c 0f bf ed          	movswq %bp,%r13
     dbe:	4c 0f bf f5          	movswq %bp,%r14
     dc2:	4c 0f bf fd          	movswq %bp,%r15
     dc6:	90                   	nop
     dc7:	48 0f bf c6          	movswq %si,%rax
     dcb:	48 0f bf ce          	movswq %si,%rcx
     dcf:	48 0f bf d6          	movswq %si,%rdx
     dd3:	48 0f bf de          	movswq %si,%rbx
     dd7:	48 0f bf e6          	movswq %si,%rsp
     ddb:	48 0f bf ee          	movswq %si,%rbp
     ddf:	48 0f bf f6          	movswq %si,%rsi
     de3:	48 0f bf fe          	movswq %si,%rdi
     de7:	4c 0f bf c6          	movswq %si,%r8
     deb:	4c 0f bf ce          	movswq %si,%r9
     def:	4c 0f bf d6          	movswq %si,%r10
     df3:	4c 0f bf de          	movswq %si,%r11
     df7:	4c 0f bf e6          	movswq %si,%r12
     dfb:	4c 0f bf ee          	movswq %si,%r13
     dff:	4c 0f bf f6          	movswq %si,%r14
     e03:	4c 0f bf fe          	movswq %si,%r15
     e07:	90                   	nop
     e08:	48 0f bf c7          	movswq %di,%rax
     e0c:	48 0f bf cf          	movswq %di,%rcx
     e10:	48 0f bf d7          	movswq %di,%rdx
     e14:	48 0f bf df          	movswq %di,%rbx
     e18:	48 0f bf e7          	movswq %di,%rsp
     e1c:	48 0f bf ef          	movswq %di,%rbp
     e20:	48 0f bf f7          	movswq %di,%rsi
     e24:	48 0f bf ff          	movswq %di,%rdi
     e28:	4c 0f bf c7          	movswq %di,%r8
     e2c:	4c 0f bf cf          	movswq %di,%r9
     e30:	4c 0f bf d7          	movswq %di,%r10
     e34:	4c 0f bf df          	movswq %di,%r11
     e38:	4c 0f bf e7          	movswq %di,%r12
     e3c:	4c 0f bf ef          	movswq %di,%r13
     e40:	4c 0f bf f7          	movswq %di,%r14
     e44:	4c 0f bf ff          	movswq %di,%r15
     e48:	90                   	nop
     e49:	49 0f bf c0          	movswq %r8w,%rax
     e4d:	49 0f bf c8          	movswq %r8w,%rcx
     e51:	49 0f bf d0          	movswq %r8w,%rdx
     e55:	49 0f bf d8          	movswq %r8w,%rbx
     e59:	49 0f bf e0          	movswq %r8w,%rsp
     e5d:	49 0f bf e8          	movswq %r8w,%rbp
     e61:	49 0f bf f0          	movswq %r8w,%rsi
     e65:	49 0f bf f8          	movswq %r8w,%rdi
     e69:	4d 0f bf c0          	movswq %r8w,%r8
     e6d:	4d 0f bf c8          	movswq %r8w,%r9
     e71:	4d 0f bf d0          	movswq %r8w,%r10
     e75:	4d 0f bf d8          	movswq %r8w,%r11
     e79:	4d 0f bf e0          	movswq %r8w,%r12
     e7d:	4d 0f bf e8          	movswq %r8w,%r13
     e81:	4d 0f bf f0          	movswq %r8w,%r14
     e85:	4d 0f bf f8          	movswq %r8w,%r15
     e89:	90                   	nop
     e8a:	49 0f bf c1          	movswq %r9w,%rax
     e8e:	49 0f bf c9          	movswq %r9w,%rcx
     e92:	49 0f bf d1          	movswq %r9w,%rdx
     e96:	49 0f bf d9          	movswq %r9w,%rbx
     e9a:	49 0f bf e1          	movswq %r9w,%rsp
     e9e:	49 0f bf e9          	movswq %r9w,%rbp
     ea2:	49 0f bf f1          	movswq %r9w,%rsi
     ea6:	49 0f bf f9          	movswq %r9w,%rdi
     eaa:	4d 0f bf c1          	movswq %r9w,%r8
     eae:	4d 0f bf c9          	movswq %r9w,%r9
     eb2:	4d 0f bf d1          	movswq %r9w,%r10
     eb6:	4d 0f bf d9          	movswq %r9w,%r11
     eba:	4d 0f bf e1          	movswq %r9w,%r12
     ebe:	4d 0f bf e9          	movswq %r9w,%r13
     ec2:	4d 0f bf f1          	movswq %r9w,%r14
     ec6:	4d 0f bf f9          	movswq %r9w,%r15
     eca:	90                   	nop
     ecb:	49 0f bf c2          	movswq %r10w,%rax
     ecf:	49 0f bf ca          	movswq %r10w,%rcx
     ed3:	49 0f bf d2          	movswq %r10w,%rdx
     ed7:	49 0f bf da          	movswq %r10w,%rbx
     edb:	49 0f bf e2          	movswq %r10w,%rsp
     edf:	49 0f bf ea          	movswq %r10w,%rbp
     ee3:	49 0f bf f2          	movswq %r10w,%rsi
     ee7:	49 0f bf fa          	movswq %r10w,%rdi
     eeb:	4d 0f bf c2          	movswq %r10w,%r8
     eef:	4d 0f bf ca          	movswq %r10w,%r9
     ef3:	4d 0f bf d2          	movswq %r10w,%r10
     ef7:	4d 0f bf da          	movswq %r10w,%r11
     efb:	4d 0f bf e2          	movswq %r10w,%r12
     eff:	4d 0f bf ea          	movswq %r10w,%r13
     f03:	4d 0f bf f2          	movswq %r10w,%r14
     f07:	4d 0f bf fa          	movswq %r10w,%r15
     f0b:	90                   	nop
     f0c:	49 0f bf c3          	movswq %r11w,%rax
     f10:	49 0f bf cb          	movswq %r11w,%rcx
     f14:	49 0f bf d3          	movswq %r11w,%rdx
     f18:	49 0f bf db          	movswq %r11w,%rbx
     f1c:	49 0f bf e3          	movswq %r11w,%rsp
     f20:	49 0f bf eb          	movswq %r11w,%rbp
     f24:	49 0f bf f3          	movswq %r11w,%rsi
     f28:	49 0f bf fb          	movswq %r11w,%rdi
     f2c:	4d 0f bf c3          	movswq %r11w,%r8
     f30:	4d 0f bf cb          	movswq %r11w,%r9
     f34:	4d 0f bf d3          	movswq %r11w,%r10
     f38:	4d 0f bf db          	movswq %r11w,%r11
     f3c:	4d 0f bf e3          	movswq %r11w,%r12
     f40:	4d 0f bf eb          	movswq %r11w,%r13
     f44:	4d 0f bf f3          	movswq %r11w,%r14
     f48:	4d 0f bf fb          	movswq %r11w,%r15
     f4c:	90                   	nop
     f4d:	49 0f bf c4          	movswq %r12w,%rax
     f51:	49 0f bf cc          	movswq %r12w,%rcx
     f55:	49 0f bf d4          	movswq %r12w,%rdx
     f59:	49 0f bf dc          	movswq %r12w,%rbx
     f5d:	49 0f bf e4          	movswq %r12w,%rsp
     f61:	49 0f bf ec          	movswq %r12w,%rbp
     f65:	49 0f bf f4          	movswq %r12w,%rsi
     f69:	49 0f bf fc          	movswq %r12w,%rdi
     f6d:	4d 0f bf c4          	movswq %r12w,%r8
     f71:	4d 0f bf cc          	movswq %r12w,%r9
     f75:	4d 0f bf d4          	movswq %r12w,%r10
     f79:	4d 0f bf dc          	movswq %r12w,%r11
     f7d:	4d 0f bf e4          	movswq %r12w,%r12
     f81:	4d 0f bf ec          	movswq %r12w,%r13
     f85:	4d 0f bf f4          	movswq %r12w,%r14
     f89:	4d 0f bf fc          	movswq %r12w,%r15
     f8d:	90                   	nop
     f8e:	49 0f bf c5          	movswq %r13w,%rax
     f92:	49 0f bf cd          	movswq %r13w,%rcx
     f96:	49 0f bf d5          	movswq %r13w,%rdx
     f9a:	49 0f bf dd          	movswq %r13w,%rbx
     f9e:	49 0f bf e5          	movswq %r13w,%rsp
     fa2:	49 0f bf ed          	movswq %r13w,%rbp
     fa6:	49 0f bf f5          	movswq %r13w,%rsi
     faa:	49 0f bf fd          	movswq %r13w,%rdi
     fae:	4d 0f bf c5          	movswq %r13w,%r8
     fb2:	4d 0f bf cd          	movswq %r13w,%r9
     fb6:	4d 0f bf d5          	movswq %r13w,%r10
     fba:	4d 0f bf dd          	movswq %r13w,%r11
     fbe:	4d 0f bf e5          	movswq %r13w,%r12
     fc2:	4d 0f bf ed          	movswq %r13w,%r13
     fc6:	4d 0f bf f5          	movswq %r13w,%r14
     fca:	4d 0f bf fd          	movswq %r13w,%r15
     fce:	90                   	nop
     fcf:	49 0f bf c6          	movswq %r14w,%rax
     fd3:	49 0f bf ce          	movswq %r14w,%rcx
     fd7:	49 0f bf d6          	movswq %r14w,%rdx
     fdb:	49 0f bf de          	movswq %r14w,%rbx
     fdf:	49 0f bf e6          	movswq %r14w,%rsp
     fe3:	49 0f bf ee          	movswq %r14w,%rbp
     fe7:	49 0f bf f6          	movswq %r14w,%rsi
     feb:	49 0f bf fe          	movswq %r14w,%rdi
     fef:	4d 0f bf c6          	movswq %r14w,%r8
     ff3:	4d 0f bf ce          	movswq %r14w,%r9
     ff7:	4d 0f bf d6          	movswq %r14w,%r10
     ffb:	4d 0f bf de          	movswq %r14w,%r11
     fff:	4d 0f bf e6          	movswq %r14w,%r12
    1003:	4d 0f bf ee          	movswq %r14w,%r13
    1007:	4d 0f bf f6          	movswq %r14w,%r14
    100b:	4d 0f bf fe          	movswq %r14w,%r15
    100f:	90                   	nop
    1010:	49 0f bf c7          	movswq %r15w,%rax
    1014:	49 0f bf cf          	movswq %r15w,%rcx
    1018:	49 0f bf d7          	movswq %r15w,%rdx
    101c:	49 0f bf df          	movswq %r15w,%rbx
    1020:	49 0f bf e7          	movswq %r15w,%rsp
    1024:	49 0f bf ef          	movswq %r15w,%rbp
    1028:	49 0f bf f7          	movswq %r15w,%rsi
    102c:	49 0f bf ff          	movswq %r15w,%rdi
    1030:	4d 0f bf c7          	movswq %r15w,%r8
    1034:	4d 0f bf cf          	movswq %r15w,%r9
    1038:	4d 0f bf d7          	movswq %r15w,%r10
    103c:	4d 0f bf df          	movswq %r15w,%r11
    1040:	4d 0f bf e7          	movswq %r15w,%r12
    1044:	4d 0f bf ef          	movswq %r15w,%r13
    1048:	4d 0f bf f7          	movswq %r15w,%r14
    104c:	4d 0f bf ff          	movswq %r15w,%r15
    1050:	90                   	nop
    1051:	90                   	nop
    1052:	48 0f bf c0          	movswq %ax,%rax
    1056:	48 0f bf c8          	movswq %ax,%rcx
    105a:	48 0f bf d0          	movswq %ax,%rdx
    105e:	48 0f bf d8          	movswq %ax,%rbx
    1062:	48 0f bf e0          	movswq %ax,%rsp
    1066:	48 0f bf e8          	movswq %ax,%rbp
    106a:	48 0f bf f0          	movswq %ax,%rsi
    106e:	48 0f bf f8          	movswq %ax,%rdi
    1072:	4c 0f bf c0          	movswq %ax,%r8
    1076:	4c 0f bf c8          	movswq %ax,%r9
    107a:	4c 0f bf d0          	movswq %ax,%r10
    107e:	4c 0f bf d8          	movswq %ax,%r11
    1082:	4c 0f bf e0          	movswq %ax,%r12
    1086:	4c 0f bf e8          	movswq %ax,%r13
    108a:	4c 0f bf f0          	movswq %ax,%r14
    108e:	4c 0f bf f8          	movswq %ax,%r15
    1092:	90                   	nop
    1093:	48 0f bf c1          	movswq %cx,%rax
    1097:	48 0f bf c9          	movswq %cx,%rcx
    109b:	48 0f bf d1          	movswq %cx,%rdx
    109f:	48 0f bf d9          	movswq %cx,%rbx
    10a3:	48 0f bf e1          	movswq %cx,%rsp
    10a7:	48 0f bf e9          	movswq %cx,%rbp
    10ab:	48 0f bf f1          	movswq %cx,%rsi
    10af:	48 0f bf f9          	movswq %cx,%rdi
    10b3:	4c 0f bf c1          	movswq %cx,%r8
    10b7:	4c 0f bf c9          	movswq %cx,%r9
    10bb:	4c 0f bf d1          	movswq %cx,%r10
    10bf:	4c 0f bf d9          	movswq %cx,%r11
    10c3:	4c 0f bf e1          	movswq %cx,%r12
    10c7:	4c 0f bf e9          	movswq %cx,%r13
    10cb:	4c 0f bf f1          	movswq %cx,%r14
    10cf:	4c 0f bf f9          	movswq %cx,%r15
    10d3:	90                   	nop
    10d4:	48 0f bf c2          	movswq %dx,%rax
    10d8:	48 0f bf ca          	movswq %dx,%rcx
    10dc:	48 0f bf d2          	movswq %dx,%rdx
    10e0:	48 0f bf da          	movswq %dx,%rbx
    10e4:	48 0f bf e2          	movswq %dx,%rsp
    10e8:	48 0f bf ea          	movswq %dx,%rbp
    10ec:	48 0f bf f2          	movswq %dx,%rsi
    10f0:	48 0f bf fa          	movswq %dx,%rdi
    10f4:	4c 0f bf c2          	movswq %dx,%r8
    10f8:	4c 0f bf ca          	movswq %dx,%r9
    10fc:	4c 0f bf d2          	movswq %dx,%r10
    1100:	4c 0f bf da          	movswq %dx,%r11
    1104:	4c 0f bf e2          	movswq %dx,%r12
    1108:	4c 0f bf ea          	movswq %dx,%r13
    110c:	4c 0f bf f2          	movswq %dx,%r14
    1110:	4c 0f bf fa          	movswq %dx,%r15
    1114:	90                   	nop
    1115:	48 0f bf c3          	movswq %bx,%rax
    1119:	48 0f bf cb          	movswq %bx,%rcx
    111d:	48 0f bf d3          	movswq %bx,%rdx
    1121:	48 0f bf db          	movswq %bx,%rbx
    1125:	48 0f bf e3          	movswq %bx,%rsp
    1129:	48 0f bf eb          	movswq %bx,%rbp
    112d:	48 0f bf f3          	movswq %bx,%rsi
    1131:	48 0f bf fb          	movswq %bx,%rdi
    1135:	4c 0f bf c3          	movswq %bx,%r8
    1139:	4c 0f bf cb          	movswq %bx,%r9
    113d:	4c 0f bf d3          	movswq %bx,%r10
    1141:	4c 0f bf db          	movswq %bx,%r11
    1145:	4c 0f bf e3          	movswq %bx,%r12
    1149:	4c 0f bf eb          	movswq %bx,%r13
    114d:	4c 0f bf f3          	movswq %bx,%r14
    1151:	4c 0f bf fb          	movswq %bx,%r15
    1155:	90                   	nop
    1156:	48 0f bf c4          	movswq %sp,%rax
    115a:	48 0f bf cc          	movswq %sp,%rcx
    115e:	48 0f bf d4          	movswq %sp,%rdx
    1162:	48 0f bf dc          	movswq %sp,%rbx
    1166:	48 0f bf e4          	movswq %sp,%rsp
    116a:	48 0f bf ec          	movswq %sp,%rbp
    116e:	48 0f bf f4          	movswq %sp,%rsi
    1172:	48 0f bf fc          	movswq %sp,%rdi
    1176:	4c 0f bf c4          	movswq %sp,%r8
    117a:	4c 0f bf cc          	movswq %sp,%r9
    117e:	4c 0f bf d4          	movswq %sp,%r10
    1182:	4c 0f bf dc          	movswq %sp,%r11
    1186:	4c 0f bf e4          	movswq %sp,%r12
    118a:	4c 0f bf ec          	movswq %sp,%r13
    118e:	4c 0f bf f4          	movswq %sp,%r14
    1192:	4c 0f bf fc          	movswq %sp,%r15
    1196:	90                   	nop
    1197:	48 0f bf c5          	movswq %bp,%rax
    119b:	48 0f bf cd          	movswq %bp,%rcx
    119f:	48 0f bf d5          	movswq %bp,%rdx
    11a3:	48 0f bf dd          	movswq %bp,%rbx
    11a7:	48 0f bf e5          	movswq %bp,%rsp
    11ab:	48 0f bf ed          	movswq %bp,%rbp
    11af:	48 0f bf f5          	movswq %bp,%rsi
    11b3:	48 0f bf fd          	movswq %bp,%rdi
    11b7:	4c 0f bf c5          	movswq %bp,%r8
    11bb:	4c 0f bf cd          	movswq %bp,%r9
    11bf:	4c 0f bf d5          	movswq %bp,%r10
    11c3:	4c 0f bf dd          	movswq %bp,%r11
    11c7:	4c 0f bf e5          	movswq %bp,%r12
    11cb:	4c 0f bf ed          	movswq %bp,%r13
    11cf:	4c 0f bf f5          	movswq %bp,%r14
    11d3:	4c 0f bf fd          	movswq %bp,%r15
    11d7:	90                   	nop
    11d8:	48 0f bf c6          	movswq %si,%rax
    11dc:	48 0f bf ce          	movswq %si,%rcx
    11e0:	48 0f bf d6          	movswq %si,%rdx
    11e4:	48 0f bf de          	movswq %si,%rbx
    11e8:	48 0f bf e6          	movswq %si,%rsp
    11ec:	48 0f bf ee          	movswq %si,%rbp
    11f0:	48 0f bf f6          	movswq %si,%rsi
    11f4:	48 0f bf fe          	movswq %si,%rdi
    11f8:	4c 0f bf c6          	movswq %si,%r8
    11fc:	4c 0f bf ce          	movswq %si,%r9
    1200:	4c 0f bf d6          	movswq %si,%r10
    1204:	4c 0f bf de          	movswq %si,%r11
    1208:	4c 0f bf e6          	movswq %si,%r12
    120c:	4c 0f bf ee          	movswq %si,%r13
    1210:	4c 0f bf f6          	movswq %si,%r14
    1214:	4c 0f bf fe          	movswq %si,%r15
    1218:	90                   	nop
    1219:	48 0f bf c7          	movswq %di,%rax
    121d:	48 0f bf cf          	movswq %di,%rcx
    1221:	48 0f bf d7          	movswq %di,%rdx
    1225:	48 0f bf df          	movswq %di,%rbx
    1229:	48 0f bf e7          	movswq %di,%rsp
    122d:	48 0f bf ef          	movswq %di,%rbp
    1231:	48 0f bf f7          	movswq %di,%rsi
    1235:	48 0f bf ff          	movswq %di,%rdi
    1239:	4c 0f bf c7          	movswq %di,%r8
    123d:	4c 0f bf cf          	movswq %di,%r9
    1241:	4c 0f bf d7          	movswq %di,%r10
    1245:	4c 0f bf df          	movswq %di,%r11
    1249:	4c 0f bf e7          	movswq %di,%r12
    124d:	4c 0f bf ef          	movswq %di,%r13
    1251:	4c 0f bf f7          	movswq %di,%r14
    1255:	4c 0f bf ff          	movswq %di,%r15
    1259:	90                   	nop
    125a:	49 0f bf c0          	movswq %r8w,%rax
    125e:	49 0f bf c8          	movswq %r8w,%rcx
    1262:	49 0f bf d0          	movswq %r8w,%rdx
    1266:	49 0f bf d8          	movswq %r8w,%rbx
    126a:	49 0f bf e0          	movswq %r8w,%rsp
    126e:	49 0f bf e8          	movswq %r8w,%rbp
    1272:	49 0f bf f0          	movswq %r8w,%rsi
    1276:	49 0f bf f8          	movswq %r8w,%rdi
    127a:	4d 0f bf c0          	movswq %r8w,%r8
    127e:	4d 0f bf c8          	movswq %r8w,%r9
    1282:	4d 0f bf d0          	movswq %r8w,%r10
    1286:	4d 0f bf d8          	movswq %r8w,%r11
    128a:	4d 0f bf e0          	movswq %r8w,%r12
    128e:	4d 0f bf e8          	movswq %r8w,%r13
    1292:	4d 0f bf f0          	movswq %r8w,%r14
    1296:	4d 0f bf f8          	movswq %r8w,%r15
    129a:	90                   	nop
    129b:	49 0f bf c1          	movswq %r9w,%rax
    129f:	49 0f bf c9          	movswq %r9w,%rcx
    12a3:	49 0f bf d1          	movswq %r9w,%rdx
    12a7:	49 0f bf d9          	movswq %r9w,%rbx
    12ab:	49 0f bf e1          	movswq %r9w,%rsp
    12af:	49 0f bf e9          	movswq %r9w,%rbp
    12b3:	49 0f bf f1          	movswq %r9w,%rsi
    12b7:	49 0f bf f9          	movswq %r9w,%rdi
    12bb:	4d 0f bf c1          	movswq %r9w,%r8
    12bf:	4d 0f bf c9          	movswq %r9w,%r9
    12c3:	4d 0f bf d1          	movswq %r9w,%r10
    12c7:	4d 0f bf d9          	movswq %r9w,%r11
    12cb:	4d 0f bf e1          	movswq %r9w,%r12
    12cf:	4d 0f bf e9          	movswq %r9w,%r13
    12d3:	4d 0f bf f1          	movswq %r9w,%r14
    12d7:	4d 0f bf f9          	movswq %r9w,%r15
    12db:	90                   	nop
    12dc:	49 0f bf c2          	movswq %r10w,%rax
    12e0:	49 0f bf ca          	movswq %r10w,%rcx
    12e4:	49 0f bf d2          	movswq %r10w,%rdx
    12e8:	49 0f bf da          	movswq %r10w,%rbx
    12ec:	49 0f bf e2          	movswq %r10w,%rsp
    12f0:	49 0f bf ea          	movswq %r10w,%rbp
    12f4:	49 0f bf f2          	movswq %r10w,%rsi
    12f8:	49 0f bf fa          	movswq %r10w,%rdi
    12fc:	4d 0f bf c2          	movswq %r10w,%r8
    1300:	4d 0f bf ca          	movswq %r10w,%r9
    1304:	4d 0f bf d2          	movswq %r10w,%r10
    1308:	4d 0f bf da          	movswq %r10w,%r11
    130c:	4d 0f bf e2          	movswq %r10w,%r12
    1310:	4d 0f bf ea          	movswq %r10w,%r13
    1314:	4d 0f bf f2          	movswq %r10w,%r14
    1318:	4d 0f bf fa          	movswq %r10w,%r15
    131c:	90                   	nop
    131d:	49 0f bf c3          	movswq %r11w,%rax
    1321:	49 0f bf cb          	movswq %r11w,%rcx
    1325:	49 0f bf d3          	movswq %r11w,%rdx
    1329:	49 0f bf db          	movswq %r11w,%rbx
    132d:	49 0f bf e3          	movswq %r11w,%rsp
    1331:	49 0f bf eb          	movswq %r11w,%rbp
    1335:	49 0f bf f3          	movswq %r11w,%rsi
    1339:	49 0f bf fb          	movswq %r11w,%rdi
    133d:	4d 0f bf c3          	movswq %r11w,%r8
    1341:	4d 0f bf cb          	movswq %r11w,%r9
    1345:	4d 0f bf d3          	movswq %r11w,%r10
    1349:	4d 0f bf db          	movswq %r11w,%r11
    134d:	4d 0f bf e3          	movswq %r11w,%r12
    1351:	4d 0f bf eb          	movswq %r11w,%r13
    1355:	4d 0f bf f3          	movswq %r11w,%r14
    1359:	4d 0f bf fb          	movswq %r11w,%r15
    135d:	90                   	nop
    135e:	49 0f bf c4          	movswq %r12w,%rax
    1362:	49 0f bf cc          	movswq %r12w,%rcx
    1366:	49 0f bf d4          	movswq %r12w,%rdx
    136a:	49 0f bf dc          	movswq %r12w,%rbx
    136e:	49 0f bf e4          	movswq %r12w,%rsp
    1372:	49 0f bf ec          	movswq %r12w,%rbp
    1376:	49 0f bf f4          	movswq %r12w,%rsi
    137a:	49 0f bf fc          	movswq %r12w,%rdi
    137e:	4d 0f bf c4          	movswq %r12w,%r8
    1382:	4d 0f bf cc          	movswq %r12w,%r9
    1386:	4d 0f bf d4          	movswq %r12w,%r10
    138a:	4d 0f bf dc          	movswq %r12w,%r11
    138e:	4d 0f bf e4          	movswq %r12w,%r12
    1392:	4d 0f bf ec          	movswq %r12w,%r13
    1396:	4d 0f bf f4          	movswq %r12w,%r14
    139a:	4d 0f bf fc          	movswq %r12w,%r15
    139e:	90                   	nop
    139f:	49 0f bf c5          	movswq %r13w,%rax
    13a3:	49 0f bf cd          	movswq %r13w,%rcx
    13a7:	49 0f bf d5          	movswq %r13w,%rdx
    13ab:	49 0f bf dd          	movswq %r13w,%rbx
    13af:	49 0f bf e5          	movswq %r13w,%rsp
    13b3:	49 0f bf ed          	movswq %r13w,%rbp
    13b7:	49 0f bf f5          	movswq %r13w,%rsi
    13bb:	49 0f bf fd          	movswq %r13w,%rdi
    13bf:	4d 0f bf c5          	movswq %r13w,%r8
    13c3:	4d 0f bf cd          	movswq %r13w,%r9
    13c7:	4d 0f bf d5          	movswq %r13w,%r10
    13cb:	4d 0f bf dd          	movswq %r13w,%r11
    13cf:	4d 0f bf e5          	movswq %r13w,%r12
    13d3:	4d 0f bf ed          	movswq %r13w,%r13
    13d7:	4d 0f bf f5          	movswq %r13w,%r14
    13db:	4d 0f bf fd          	movswq %r13w,%r15
    13df:	90                   	nop
    13e0:	49 0f bf c6          	movswq %r14w,%rax
    13e4:	49 0f bf ce          	movswq %r14w,%rcx
    13e8:	49 0f bf d6          	movswq %r14w,%rdx
    13ec:	49 0f bf de          	movswq %r14w,%rbx
    13f0:	49 0f bf e6          	movswq %r14w,%rsp
    13f4:	49 0f bf ee          	movswq %r14w,%rbp
    13f8:	49 0f bf f6          	movswq %r14w,%rsi
    13fc:	49 0f bf fe          	movswq %r14w,%rdi
    1400:	4d 0f bf c6          	movswq %r14w,%r8
    1404:	4d 0f bf ce          	movswq %r14w,%r9
    1408:	4d 0f bf d6          	movswq %r14w,%r10
    140c:	4d 0f bf de          	movswq %r14w,%r11
    1410:	4d 0f bf e6          	movswq %r14w,%r12
    1414:	4d 0f bf ee          	movswq %r14w,%r13
    1418:	4d 0f bf f6          	movswq %r14w,%r14
    141c:	4d 0f bf fe          	movswq %r14w,%r15
    1420:	90                   	nop
    1421:	49 0f bf c7          	movswq %r15w,%rax
    1425:	49 0f bf cf          	movswq %r15w,%rcx
    1429:	49 0f bf d7          	movswq %r15w,%rdx
    142d:	49 0f bf df          	movswq %r15w,%rbx
    1431:	49 0f bf e7          	movswq %r15w,%rsp
    1435:	49 0f bf ef          	movswq %r15w,%rbp
    1439:	49 0f bf f7          	movswq %r15w,%rsi
    143d:	49 0f bf ff          	movswq %r15w,%rdi
    1441:	4d 0f bf c7          	movswq %r15w,%r8
    1445:	4d 0f bf cf          	movswq %r15w,%r9
    1449:	4d 0f bf d7          	movswq %r15w,%r10
    144d:	4d 0f bf df          	movswq %r15w,%r11
    1451:	4d 0f bf e7          	movswq %r15w,%r12
    1455:	4d 0f bf ef          	movswq %r15w,%r13
    1459:	4d 0f bf f7          	movswq %r15w,%r14
    145d:	4d 0f bf ff          	movswq %r15w,%r15
    1461:	90                   	nop
    1462:	90                   	nop
    1463:	48 63 c0             	movslq %eax,%rax
    1466:	48 63 c8             	movslq %eax,%rcx
    1469:	48 63 d0             	movslq %eax,%rdx
    146c:	48 63 d8             	movslq %eax,%rbx
    146f:	48 63 e0             	movslq %eax,%rsp
    1472:	48 63 e8             	movslq %eax,%rbp
    1475:	48 63 f0             	movslq %eax,%rsi
    1478:	48 63 f8             	movslq %eax,%rdi
    147b:	4c 63 c0             	movslq %eax,%r8
    147e:	4c 63 c8             	movslq %eax,%r9
    1481:	4c 63 d0             	movslq %eax,%r10
    1484:	4c 63 d8             	movslq %eax,%r11
    1487:	4c 63 e0             	movslq %eax,%r12
    148a:	4c 63 e8             	movslq %eax,%r13
    148d:	4c 63 f0             	movslq %eax,%r14
    1490:	4c 63 f8             	movslq %eax,%r15
    1493:	90                   	nop
    1494:	48 63 c1             	movslq %ecx,%rax
    1497:	48 63 c9             	movslq %ecx,%rcx
    149a:	48 63 d1             	movslq %ecx,%rdx
    149d:	48 63 d9             	movslq %ecx,%rbx
    14a0:	48 63 e1             	movslq %ecx,%rsp
    14a3:	48 63 e9             	movslq %ecx,%rbp
    14a6:	48 63 f1             	movslq %ecx,%rsi
    14a9:	48 63 f9             	movslq %ecx,%rdi
    14ac:	4c 63 c1             	movslq %ecx,%r8
    14af:	4c 63 c9             	movslq %ecx,%r9
    14b2:	4c 63 d1             	movslq %ecx,%r10
    14b5:	4c 63 d9             	movslq %ecx,%r11
    14b8:	4c 63 e1             	movslq %ecx,%r12
    14bb:	4c 63 e9             	movslq %ecx,%r13
    14be:	4c 63 f1             	movslq %ecx,%r14
    14c1:	4c 63 f9             	movslq %ecx,%r15
    14c4:	90                   	nop
    14c5:	48 63 c2             	movslq %edx,%rax
    14c8:	48 63 ca             	movslq %edx,%rcx
    14cb:	48 63 d2             	movslq %edx,%rdx
    14ce:	48 63 da             	movslq %edx,%rbx
    14d1:	48 63 e2             	movslq %edx,%rsp
    14d4:	48 63 ea             	movslq %edx,%rbp
    14d7:	48 63 f2             	movslq %edx,%rsi
    14da:	48 63 fa             	movslq %edx,%rdi
    14dd:	4c 63 c2             	movslq %edx,%r8
    14e0:	4c 63 ca             	movslq %edx,%r9
    14e3:	4c 63 d2             	movslq %edx,%r10
    14e6:	4c 63 da             	movslq %edx,%r11
    14e9:	4c 63 e2             	movslq %edx,%r12
    14ec:	4c 63 ea             	movslq %edx,%r13
    14ef:	4c 63 f2             	movslq %edx,%r14
    14f2:	4c 63 fa             	movslq %edx,%r15
    14f5:	90                   	nop
    14f6:	48 63 c3             	movslq %ebx,%rax
    14f9:	48 63 cb             	movslq %ebx,%rcx
    14fc:	48 63 d3             	movslq %ebx,%rdx
    14ff:	48 63 db             	movslq %ebx,%rbx
    1502:	48 63 e3             	movslq %ebx,%rsp
    1505:	48 63 eb             	movslq %ebx,%rbp
    1508:	48 63 f3             	movslq %ebx,%rsi
    150b:	48 63 fb             	movslq %ebx,%rdi
    150e:	4c 63 c3             	movslq %ebx,%r8
    1511:	4c 63 cb             	movslq %ebx,%r9
    1514:	4c 63 d3             	movslq %ebx,%r10
    1517:	4c 63 db             	movslq %ebx,%r11
    151a:	4c 63 e3             	movslq %ebx,%r12
    151d:	4c 63 eb             	movslq %ebx,%r13
    1520:	4c 63 f3             	movslq %ebx,%r14
    1523:	4c 63 fb             	movslq %ebx,%r15
    1526:	90                   	nop
    1527:	48 63 c4             	movslq %esp,%rax
    152a:	48 63 cc             	movslq %esp,%rcx
    152d:	48 63 d4             	movslq %esp,%rdx
    1530:	48 63 dc             	movslq %esp,%rbx
    1533:	48 63 e4             	movslq %esp,%rsp
    1536:	48 63 ec             	movslq %esp,%rbp
    1539:	48 63 f4             	movslq %esp,%rsi
    153c:	48 63 fc             	movslq %esp,%rdi
    153f:	4c 63 c4             	movslq %esp,%r8
    1542:	4c 63 cc             	movslq %esp,%r9
    1545:	4c 63 d4             	movslq %esp,%r10
    1548:	4c 63 dc             	movslq %esp,%r11
    154b:	4c 63 e4             	movslq %esp,%r12
    154e:	4c 63 ec             	movslq %esp,%r13
    1551:	4c 63 f4             	movslq %esp,%r14
    1554:	4c 63 fc             	movslq %esp,%r15
    1557:	90                   	nop
    1558:	48 63 c5             	movslq %ebp,%rax
    155b:	48 63 cd             	movslq %ebp,%rcx
    155e:	48 63 d5             	movslq %ebp,%rdx
    1561:	48 63 dd             	movslq %ebp,%rbx
    1564:	48 63 e5             	movslq %ebp,%rsp
    1567:	48 63 ed             	movslq %ebp,%rbp
    156a:	48 63 f5             	movslq %ebp,%rsi
    156d:	48 63 fd             	movslq %ebp,%rdi
    1570:	4c 63 c5             	movslq %ebp,%r8
    1573:	4c 63 cd             	movslq %ebp,%r9
    1576:	4c 63 d5             	movslq %ebp,%r10
    1579:	4c 63 dd             	movslq %ebp,%r11
    157c:	4c 63 e5             	movslq %ebp,%r12
    157f:	4c 63 ed             	movslq %ebp,%r13
    1582:	4c 63 f5             	movslq %ebp,%r14
    1585:	4c 63 fd             	movslq %ebp,%r15
    1588:	90                   	nop
    1589:	48 63 c6             	movslq %esi,%rax
    158c:	48 63 ce             	movslq %esi,%rcx
    158f:	48 63 d6             	movslq %esi,%rdx
    1592:	48 63 de             	movslq %esi,%rbx
    1595:	48 63 e6             	movslq %esi,%rsp
    1598:	48 63 ee             	movslq %esi,%rbp
    159b:	48 63 f6             	movslq %esi,%rsi
    159e:	48 63 fe             	movslq %esi,%rdi
    15a1:	4c 63 c6             	movslq %esi,%r8
    15a4:	4c 63 ce             	movslq %esi,%r9
    15a7:	4c 63 d6             	movslq %esi,%r10
    15aa:	4c 63 de             	movslq %esi,%r11
    15ad:	4c 63 e6             	movslq %esi,%r12
    15b0:	4c 63 ee             	movslq %esi,%r13
    15b3:	4c 63 f6             	movslq %esi,%r14
    15b6:	4c 63 fe             	movslq %esi,%r15
    15b9:	90                   	nop
    15ba:	48 63 c7             	movslq %edi,%rax
    15bd:	48 63 cf             	movslq %edi,%rcx
    15c0:	48 63 d7             	movslq %edi,%rdx
    15c3:	48 63 df             	movslq %edi,%rbx
    15c6:	48 63 e7             	movslq %edi,%rsp
    15c9:	48 63 ef             	movslq %edi,%rbp
    15cc:	48 63 f7             	movslq %edi,%rsi
    15cf:	48 63 ff             	movslq %edi,%rdi
    15d2:	4c 63 c7             	movslq %edi,%r8
    15d5:	4c 63 cf             	movslq %edi,%r9
    15d8:	4c 63 d7             	movslq %edi,%r10
    15db:	4c 63 df             	movslq %edi,%r11
    15de:	4c 63 e7             	movslq %edi,%r12
    15e1:	4c 63 ef             	movslq %edi,%r13
    15e4:	4c 63 f7             	movslq %edi,%r14
    15e7:	4c 63 ff             	movslq %edi,%r15
    15ea:	90                   	nop
    15eb:	49 63 c0             	movslq %r8d,%rax
    15ee:	49 63 c8             	movslq %r8d,%rcx
    15f1:	49 63 d0             	movslq %r8d,%rdx
    15f4:	49 63 d8             	movslq %r8d,%rbx
    15f7:	49 63 e0             	movslq %r8d,%rsp
    15fa:	49 63 e8             	movslq %r8d,%rbp
    15fd:	49 63 f0             	movslq %r8d,%rsi
    1600:	49 63 f8             	movslq %r8d,%rdi
    1603:	4d 63 c0             	movslq %r8d,%r8
    1606:	4d 63 c8             	movslq %r8d,%r9
    1609:	4d 63 d0             	movslq %r8d,%r10
    160c:	4d 63 d8             	movslq %r8d,%r11
    160f:	4d 63 e0             	movslq %r8d,%r12
    1612:	4d 63 e8             	movslq %r8d,%r13
    1615:	4d 63 f0             	movslq %r8d,%r14
    1618:	4d 63 f8             	movslq %r8d,%r15
    161b:	90                   	nop
    161c:	49 63 c1             	movslq %r9d,%rax
    161f:	49 63 c9             	movslq %r9d,%rcx
    1622:	49 63 d1             	movslq %r9d,%rdx
    1625:	49 63 d9             	movslq %r9d,%rbx
    1628:	49 63 e1             	movslq %r9d,%rsp
    162b:	49 63 e9             	movslq %r9d,%rbp
    162e:	49 63 f1             	movslq %r9d,%rsi
    1631:	49 63 f9             	movslq %r9d,%rdi
    1634:	4d 63 c1             	movslq %r9d,%r8
    1637:	4d 63 c9             	movslq %r9d,%r9
    163a:	4d 63 d1             	movslq %r9d,%r10
    163d:	4d 63 d9             	movslq %r9d,%r11
    1640:	4d 63 e1             	movslq %r9d,%r12
    1643:	4d 63 e9             	movslq %r9d,%r13
    1646:	4d 63 f1             	movslq %r9d,%r14
    1649:	4d 63 f9             	movslq %r9d,%r15
    164c:	90                   	nop
    164d:	49 63 c2             	movslq %r10d,%rax
    1650:	49 63 ca             	movslq %r10d,%rcx
    1653:	49 63 d2             	movslq %r10d,%rdx
    1656:	49 63 da             	movslq %r10d,%rbx
    1659:	49 63 e2             	movslq %r10d,%rsp
    165c:	49 63 ea             	movslq %r10d,%rbp
    165f:	49 63 f2             	movslq %r10d,%rsi
    1662:	49 63 fa             	movslq %r10d,%rdi
    1665:	4d 63 c2             	movslq %r10d,%r8
    1668:	4d 63 ca             	movslq %r10d,%r9
    166b:	4d 63 d2             	movslq %r10d,%r10
    166e:	4d 63 da             	movslq %r10d,%r11
    1671:	4d 63 e2             	movslq %r10d,%r12
    1674:	4d 63 ea             	movslq %r10d,%r13
    1677:	4d 63 f2             	movslq %r10d,%r14
    167a:	4d 63 fa             	movslq %r10d,%r15
    167d:	90                   	nop
    167e:	49 63 c3             	movslq %r11d,%rax
    1681:	49 63 cb             	movslq %r11d,%rcx
    1684:	49 63 d3             	movslq %r11d,%rdx
    1687:	49 63 db             	movslq %r11d,%rbx
    168a:	49 63 e3             	movslq %r11d,%rsp
    168d:	49 63 eb             	movslq %r11d,%rbp
    1690:	49 63 f3             	movslq %r11d,%rsi
    1693:	49 63 fb             	movslq %r11d,%rdi
    1696:	4d 63 c3             	movslq %r11d,%r8
    1699:	4d 63 cb             	movslq %r11d,%r9
    169c:	4d 63 d3             	movslq %r11d,%r10
    169f:	4d 63 db             	movslq %r11d,%r11
    16a2:	4d 63 e3             	movslq %r11d,%r12
    16a5:	4d 63 eb             	movslq %r11d,%r13
    16a8:	4d 63 f3             	movslq %r11d,%r14
    16ab:	4d 63 fb             	movslq %r11d,%r15
    16ae:	90                   	nop
    16af:	49 63 c4             	movslq %r12d,%rax
    16b2:	49 63 cc             	movslq %r12d,%rcx
    16b5:	49 63 d4             	movslq %r12d,%rdx
    16b8:	49 63 dc             	movslq %r12d,%rbx
    16bb:	49 63 e4             	movslq %r12d,%rsp
    16be:	49 63 ec             	movslq %r12d,%rbp
    16c1:	49 63 f4             	movslq %r12d,%rsi
    16c4:	49 63 fc             	movslq %r12d,%rdi
    16c7:	4d 63 c4             	movslq %r12d,%r8
    16ca:	4d 63 cc             	movslq %r12d,%r9
    16cd:	4d 63 d4             	movslq %r12d,%r10
    16d0:	4d 63 dc             	movslq %r12d,%r11
    16d3:	4d 63 e4             	movslq %r12d,%r12
    16d6:	4d 63 ec             	movslq %r12d,%r13
    16d9:	4d 63 f4             	movslq %r12d,%r14
    16dc:	4d 63 fc             	movslq %r12d,%r15
    16df:	90                   	nop
    16e0:	49 63 c5             	movslq %r13d,%rax
    16e3:	49 63 cd             	movslq %r13d,%rcx
    16e6:	49 63 d5             	movslq %r13d,%rdx
    16e9:	49 63 dd             	movslq %r13d,%rbx
    16ec:	49 63 e5             	movslq %r13d,%rsp
    16ef:	49 63 ed             	movslq %r13d,%rbp
    16f2:	49 63 f5             	movslq %r13d,%rsi
    16f5:	49 63 fd             	movslq %r13d,%rdi
    16f8:	4d 63 c5             	movslq %r13d,%r8
    16fb:	4d 63 cd             	movslq %r13d,%r9
    16fe:	4d 63 d5             	movslq %r13d,%r10
    1701:	4d 63 dd             	movslq %r13d,%r11
    1704:	4d 63 e5             	movslq %r13d,%r12
    1707:	4d 63 ed             	movslq %r13d,%r13
    170a:	4d 63 f5             	movslq %r13d,%r14
    170d:	4d 63 fd             	movslq %r13d,%r15
    1710:	90                   	nop
    1711:	49 63 c6             	movslq %r14d,%rax
    1714:	49 63 ce             	movslq %r14d,%rcx
    1717:	49 63 d6             	movslq %r14d,%rdx
    171a:	49 63 de             	movslq %r14d,%rbx
    171d:	49 63 e6             	movslq %r14d,%rsp
    1720:	49 63 ee             	movslq %r14d,%rbp
    1723:	49 63 f6             	movslq %r14d,%rsi
    1726:	49 63 fe             	movslq %r14d,%rdi
    1729:	4d 63 c6             	movslq %r14d,%r8
    172c:	4d 63 ce             	movslq %r14d,%r9
    172f:	4d 63 d6             	movslq %r14d,%r10
    1732:	4d 63 de             	movslq %r14d,%r11
    1735:	4d 63 e6             	movslq %r14d,%r12
    1738:	4d 63 ee             	movslq %r14d,%r13
    173b:	4d 63 f6             	movslq %r14d,%r14
    173e:	4d 63 fe             	movslq %r14d,%r15
    1741:	90                   	nop
    1742:	49 63 c7             	movslq %r15d,%rax
    1745:	49 63 cf             	movslq %r15d,%rcx
    1748:	49 63 d7             	movslq %r15d,%rdx
    174b:	49 63 df             	movslq %r15d,%rbx
    174e:	49 63 e7             	movslq %r15d,%rsp
    1751:	49 63 ef             	movslq %r15d,%rbp
    1754:	49 63 f7             	movslq %r15d,%rsi
    1757:	49 63 ff             	movslq %r15d,%rdi
    175a:	4d 63 c7             	movslq %r15d,%r8
    175d:	4d 63 cf             	movslq %r15d,%r9
    1760:	4d 63 d7             	movslq %r15d,%r10
    1763:	4d 63 df             	movslq %r15d,%r11
    1766:	4d 63 e7             	movslq %r15d,%r12
    1769:	4d 63 ef             	movslq %r15d,%r13
    176c:	4d 63 f7             	movslq %r15d,%r14
    176f:	4d 63 ff             	movslq %r15d,%r15
    1772:	c3                   	retq   
